ARM GAS  C:\Users\Simon\AppData\Local\Temp\cc5OAr1W.s 			page 1


   1              		.syntax unified
   2              		.cpu cortex-m3
   3              		.fpu softvfp
   4              		.eabi_attribute 20, 1
   5              		.eabi_attribute 21, 1
   6              		.eabi_attribute 23, 3
   7              		.eabi_attribute 24, 1
   8              		.eabi_attribute 25, 1
   9              		.eabi_attribute 26, 1
  10              		.eabi_attribute 30, 1
  11              		.eabi_attribute 34, 1
  12              		.eabi_attribute 18, 4
  13              		.thumb
  14              		.syntax unified
  15              		.file	"main.c"
  16              		.text
  17              	.Ltext0:
  18              		.cfi_sections	.debug_frame
  19              		.section	.text.ISR_UART_rx_handler,"ax",%progbits
  20              		.align	2
  21              		.global	ISR_UART_rx_handler
  22              		.thumb
  23              		.thumb_func
  24              		.type	ISR_UART_rx_handler, %function
  25              	ISR_UART_rx_handler:
  26              	.LFB65:
  27              		.file 1 "main.c"
   1:main.c        **** /* ========================================
   2:main.c        ****  *
   3:main.c        ****  * Copyright YOUR COMPANY, THE YEAR
   4:main.c        ****  * All Rights Reserved
   5:main.c        ****  * UNPUBLISHED, LICENSED SOFTWARE.
   6:main.c        ****  *
   7:main.c        ****  * CONFIDENTIAL AND PROPRIETARY INFORMATION
   8:main.c        ****  * WHICH IS THE PROPERTY OF your company.
   9:main.c        ****  *
  10:main.c        ****  * ========================================
  11:main.c        **** */
  12:main.c        **** #include "project.h"
  13:main.c        **** #include "ADC.h"
  14:main.c        **** #include <stdio.h>
  15:main.c        **** 
  16:main.c        **** CY_ISR_PROTO(ISR_UART_rx_handler);
  17:main.c        **** void handleByteReceived(uint8_t byteReceived);
  18:main.c        **** 
  19:main.c        **** int main(void)
  20:main.c        **** {
  21:main.c        ****     CyGlobalIntEnable; /* Enable global interrupts. */
  22:main.c        **** 
  23:main.c        ****     /* Place your initialization/startup code here (e.g. MyInst_Start()) */
  24:main.c        ****     isr_uart_rx_StartEx(ISR_UART_rx_handler);
  25:main.c        ****     UART_1_Start();
  26:main.c        ****     ADC_init();
  27:main.c        ****     
  28:main.c        ****     UART_1_PutString("Scale application started\r\n");
  29:main.c        **** 
  30:main.c        ****     for(;;)
ARM GAS  C:\Users\Simon\AppData\Local\Temp\cc5OAr1W.s 			page 2


  31:main.c        ****     {
  32:main.c        ****         ADC_Measure();
  33:main.c        ****         CyDelay(100);
  34:main.c        ****     }
  35:main.c        **** }
  36:main.c        **** 
  37:main.c        **** CY_ISR(ISR_UART_rx_handler)
  38:main.c        **** {
  28              		.loc 1 38 0
  29              		.cfi_startproc
  30              		@ args = 0, pretend = 0, frame = 0
  31              		@ frame_needed = 0, uses_anonymous_args = 0
  32 0000 10B5     		push	{r4, lr}
  33              		.cfi_def_cfa_offset 8
  34              		.cfi_offset 4, -8
  35              		.cfi_offset 14, -4
  39:main.c        ****     uint8_t bytesToRead = UART_1_GetRxBufferSize();
  36              		.loc 1 39 0
  37 0002 FFF7FEFF 		bl	UART_1_GetRxBufferSize
  38              	.LVL0:
  39 0006 0446     		mov	r4, r0
  40              	.LVL1:
  40:main.c        ****     while (bytesToRead > 0)
  41              		.loc 1 40 0
  42 0008 05E0     		b	.L2
  43              	.L3:
  44              	.LBB2:
  41:main.c        ****     {
  42:main.c        ****         uint8_t byteReceived = UART_1_ReadRxData();
  45              		.loc 1 42 0
  46 000a FFF7FEFF 		bl	UART_1_ReadRxData
  47              	.LVL2:
  43:main.c        ****         UART_1_WriteTxData(byteReceived); // echo back
  48              		.loc 1 43 0
  49 000e FFF7FEFF 		bl	UART_1_WriteTxData
  50              	.LVL3:
  44:main.c        ****         
  45:main.c        ****         handleByteReceived(byteReceived);
  46:main.c        ****         
  47:main.c        ****         bytesToRead--;
  51              		.loc 1 47 0
  52 0012 013C     		subs	r4, r4, #1
  53              	.LVL4:
  54 0014 E4B2     		uxtb	r4, r4
  55              	.LVL5:
  56              	.L2:
  57              	.LBE2:
  40:main.c        ****     {
  58              		.loc 1 40 0
  59 0016 002C     		cmp	r4, #0
  60 0018 F7D1     		bne	.L3
  48:main.c        ****     }
  49:main.c        **** }
  61              		.loc 1 49 0
  62 001a 10BD     		pop	{r4, pc}
  63              		.cfi_endproc
  64              	.LFE65:
ARM GAS  C:\Users\Simon\AppData\Local\Temp\cc5OAr1W.s 			page 3


  65              		.size	ISR_UART_rx_handler, .-ISR_UART_rx_handler
  66              		.section	.text.main,"ax",%progbits
  67              		.align	2
  68              		.global	main
  69              		.thumb
  70              		.thumb_func
  71              		.type	main, %function
  72              	main:
  73              	.LFB64:
  20:main.c        ****     CyGlobalIntEnable; /* Enable global interrupts. */
  74              		.loc 1 20 0
  75              		.cfi_startproc
  76              		@ Volatile: function does not return.
  77              		@ args = 0, pretend = 0, frame = 0
  78              		@ frame_needed = 0, uses_anonymous_args = 0
  79 0000 08B5     		push	{r3, lr}
  80              		.cfi_def_cfa_offset 8
  81              		.cfi_offset 3, -8
  82              		.cfi_offset 14, -4
  21:main.c        **** 
  83              		.loc 1 21 0
  84              		.syntax unified
  85              	@ 21 "main.c" 1
  86 0002 62B6     		CPSIE   i
  87              	@ 0 "" 2
  24:main.c        ****     UART_1_Start();
  88              		.loc 1 24 0
  89              		.thumb
  90              		.syntax unified
  91 0004 0748     		ldr	r0, .L8
  92 0006 FFF7FEFF 		bl	isr_uart_rx_StartEx
  93              	.LVL6:
  25:main.c        ****     ADC_init();
  94              		.loc 1 25 0
  95 000a FFF7FEFF 		bl	UART_1_Start
  96              	.LVL7:
  26:main.c        ****     
  97              		.loc 1 26 0
  98 000e FFF7FEFF 		bl	ADC_init
  99              	.LVL8:
  28:main.c        **** 
 100              		.loc 1 28 0
 101 0012 0548     		ldr	r0, .L8+4
 102 0014 FFF7FEFF 		bl	UART_1_PutString
 103              	.LVL9:
 104              	.L6:
  32:main.c        ****         CyDelay(100);
 105              		.loc 1 32 0 discriminator 1
 106 0018 FFF7FEFF 		bl	ADC_Measure
 107              	.LVL10:
  33:main.c        ****     }
 108              		.loc 1 33 0 discriminator 1
 109 001c 6420     		movs	r0, #100
 110 001e FFF7FEFF 		bl	CyDelay
 111              	.LVL11:
 112 0022 F9E7     		b	.L6
 113              	.L9:
ARM GAS  C:\Users\Simon\AppData\Local\Temp\cc5OAr1W.s 			page 4


 114              		.align	2
 115              	.L8:
 116 0024 00000000 		.word	ISR_UART_rx_handler
 117 0028 00000000 		.word	.LC0
 118              		.cfi_endproc
 119              	.LFE64:
 120              		.size	main, .-main
 121              		.section	.text.handleByteReceived,"ax",%progbits
 122              		.align	2
 123              		.global	handleByteReceived
 124              		.thumb
 125              		.thumb_func
 126              		.type	handleByteReceived, %function
 127              	handleByteReceived:
 128              	.LFB66:
  50:main.c        **** 
  51:main.c        **** void handleByteReceived(uint8_t byteReceived)
  52:main.c        **** {
 129              		.loc 1 52 0
 130              		.cfi_startproc
 131              		@ args = 0, pretend = 0, frame = 0
 132              		@ frame_needed = 0, uses_anonymous_args = 0
 133              		@ link register save eliminated.
 134              	.LVL12:
 135 0000 7047     		bx	lr
 136              		.cfi_endproc
 137              	.LFE66:
 138              		.size	handleByteReceived, .-handleByteReceived
 139 0002 00BF     		.section	.rodata.str1.4,"aMS",%progbits,1
 140              		.align	2
 141              	.LC0:
 142 0000 5363616C 		.ascii	"Scale application started\015\012\000"
 142      65206170 
 142      706C6963 
 142      6174696F 
 142      6E207374 
 143              		.text
 144              	.Letext0:
 145              		.file 2 "c:\\program files (x86)\\cypress\\psoc creator\\4.3\\psoc creator\\import\\gnu\\arm\\5.4.
 146              		.file 3 "c:\\program files (x86)\\cypress\\psoc creator\\4.3\\psoc creator\\import\\gnu\\arm\\5.4.
 147              		.file 4 "Generated_Source\\PSoC5/UART_1.h"
 148              		.file 5 "Generated_Source\\PSoC5/isr_uart_rx.h"
 149              		.file 6 "ADC.h"
 150              		.file 7 "Generated_Source\\PSoC5/CyLib.h"
 151              		.file 8 "Generated_Source\\PSoC5/core_cm3.h"