ARM GAS  C:\Users\Simon\AppData\Local\Temp\ccDMoNGH.s 			page 1


   1              		.syntax unified
   2              		.cpu cortex-m3
   3              		.fpu softvfp
   4              		.eabi_attribute 20, 1
   5              		.eabi_attribute 21, 1
   6              		.eabi_attribute 23, 3
   7              		.eabi_attribute 24, 1
   8              		.eabi_attribute 25, 1
   9              		.eabi_attribute 26, 1
  10              		.eabi_attribute 30, 1
  11              		.eabi_attribute 34, 1
  12              		.eabi_attribute 18, 4
  13              		.thumb
  14              		.syntax unified
  15              		.file	"main.c"
  16              		.text
  17              	.Ltext0:
  18              		.cfi_sections	.debug_frame
  19              		.section	.text.main,"ax",%progbits
  20              		.align	2
  21              		.global	main
  22              		.thumb
  23              		.thumb_func
  24              		.type	main, %function
  25              	main:
  26              	.LFB64:
  27              		.file 1 "main.c"
   1:main.c        **** /* ========================================
   2:main.c        ****  *
   3:main.c        ****  * Copyright YOUR COMPANY, THE YEAR
   4:main.c        ****  * All Rights Reserved
   5:main.c        ****  * UNPUBLISHED, LICENSED SOFTWARE.
   6:main.c        ****  *
   7:main.c        ****  * CONFIDENTIAL AND PROPRIETARY INFORMATION
   8:main.c        ****  * WHICH IS THE PROPERTY OF your company.
   9:main.c        ****  *
  10:main.c        ****  * ========================================
  11:main.c        **** */
  12:main.c        **** #include <project.h>
  13:main.c        **** #include <stdio.h>
  14:main.c        **** #include <stdint.h>
  15:main.c        **** 
  16:main.c        **** #include <UART_handler.h>
  17:main.c        **** #include <SPI_handler.h>
  18:main.c        **** 
  19:main.c        **** CY_ISR_PROTO(ISR_UART_rx_handler);
  20:main.c        **** 
  21:main.c        **** int main(void)
  22:main.c        **** {
  28              		.loc 1 22 0
  29              		.cfi_startproc
  30              		@ Volatile: function does not return.
  31              		@ args = 0, pretend = 0, frame = 0
  32              		@ frame_needed = 0, uses_anonymous_args = 0
  33 0000 08B5     		push	{r3, lr}
  34              		.cfi_def_cfa_offset 8
  35              		.cfi_offset 3, -8
ARM GAS  C:\Users\Simon\AppData\Local\Temp\ccDMoNGH.s 			page 2


  36              		.cfi_offset 14, -4
  23:main.c        ****     CyGlobalIntEnable; /* Enable global interrupts. */
  37              		.loc 1 23 0
  38              		.syntax unified
  39              	@ 23 "main.c" 1
  40 0002 62B6     		CPSIE   i
  41              	@ 0 "" 2
  24:main.c        **** 
  25:main.c        ****     /* Place your initialization/startup code here (e.g. MyInst_Start()) */
  26:main.c        ****     UART_1_Start();
  42              		.loc 1 26 0
  43              		.thumb
  44              		.syntax unified
  45 0004 FFF7FEFF 		bl	UART_1_Start
  46              	.LVL0:
  27:main.c        ****     SPIM_1_Start();
  47              		.loc 1 27 0
  48 0008 FFF7FEFF 		bl	SPIM_1_Start
  49              	.LVL1:
  28:main.c        ****     
  29:main.c        ****     pushButtonState();
  50              		.loc 1 29 0
  51 000c FFF7FEFF 		bl	pushButtonState
  52              	.LVL2:
  53              	.L2:
  30:main.c        ****     
  31:main.c        ****    
  32:main.c        ****     for(;;)
  33:main.c        ****     {
  34:main.c        ****         pushButtonState();
  54              		.loc 1 34 0 discriminator 1
  55 0010 FFF7FEFF 		bl	pushButtonState
  56              	.LVL3:
  35:main.c        ****         
  36:main.c        ****         /* Place your application code here. */
  37:main.c        ****         
  38:main.c        ****         CyDelay(1000);
  57              		.loc 1 38 0 discriminator 1
  58 0014 4FF47A70 		mov	r0, #1000
  59 0018 FFF7FEFF 		bl	CyDelay
  60              	.LVL4:
  61 001c F8E7     		b	.L2
  62              		.cfi_endproc
  63              	.LFE64:
  64              		.size	main, .-main
  65 001e 00BF     		.section	.text.ISR_UART_rx_handler,"ax",%progbits
  66              		.align	2
  67              		.global	ISR_UART_rx_handler
  68              		.thumb
  69              		.thumb_func
  70              		.type	ISR_UART_rx_handler, %function
  71              	ISR_UART_rx_handler:
  72              	.LFB65:
  39:main.c        ****     }
  40:main.c        **** }
  41:main.c        **** 
  42:main.c        **** CY_ISR(ISR_UART_rx_handler)
ARM GAS  C:\Users\Simon\AppData\Local\Temp\ccDMoNGH.s 			page 3


  43:main.c        **** {
  73              		.loc 1 43 0
  74              		.cfi_startproc
  75              		@ args = 0, pretend = 0, frame = 0
  76              		@ frame_needed = 0, uses_anonymous_args = 0
  77 0000 38B5     		push	{r3, r4, r5, lr}
  78              		.cfi_def_cfa_offset 16
  79              		.cfi_offset 3, -16
  80              		.cfi_offset 4, -12
  81              		.cfi_offset 5, -8
  82              		.cfi_offset 14, -4
  44:main.c        ****     uint8_t bytesToRead = UART_1_GetRxBufferSize();
  83              		.loc 1 44 0
  84 0002 FFF7FEFF 		bl	UART_1_GetRxBufferSize
  85              	.LVL5:
  86 0006 0446     		mov	r4, r0
  87              	.LVL6:
  45:main.c        ****     while (bytesToRead > 0)
  88              		.loc 1 45 0
  89 0008 09E0     		b	.L5
  90              	.L6:
  91              	.LBB2:
  46:main.c        ****     {
  47:main.c        ****         uint8_t byteReceived = UART_1_ReadRxData();
  92              		.loc 1 47 0
  93 000a FFF7FEFF 		bl	UART_1_ReadRxData
  94              	.LVL7:
  95 000e 0546     		mov	r5, r0
  96              	.LVL8:
  48:main.c        ****         UART_1_WriteTxData(byteReceived); // echo back
  97              		.loc 1 48 0
  98 0010 FFF7FEFF 		bl	UART_1_WriteTxData
  99              	.LVL9:
  49:main.c        ****         
  50:main.c        ****         handleByteReceived(byteReceived);
 100              		.loc 1 50 0
 101 0014 2846     		mov	r0, r5
 102 0016 FFF7FEFF 		bl	handleByteReceived
 103              	.LVL10:
  51:main.c        ****         
  52:main.c        ****         bytesToRead--;
 104              		.loc 1 52 0
 105 001a 013C     		subs	r4, r4, #1
 106              	.LVL11:
 107 001c E4B2     		uxtb	r4, r4
 108              	.LVL12:
 109              	.L5:
 110              	.LBE2:
  45:main.c        ****     {
 111              		.loc 1 45 0
 112 001e 002C     		cmp	r4, #0
 113 0020 F3D1     		bne	.L6
  53:main.c        ****     }
  54:main.c        **** }
 114              		.loc 1 54 0
 115 0022 38BD     		pop	{r3, r4, r5, pc}
 116              		.cfi_endproc
ARM GAS  C:\Users\Simon\AppData\Local\Temp\ccDMoNGH.s 			page 4


 117              	.LFE65:
 118              		.size	ISR_UART_rx_handler, .-ISR_UART_rx_handler
 119              		.text
 120              	.Letext0:
 121              		.file 2 "c:\\program files (x86)\\cypress\\psoc creator\\4.3\\psoc creator\\import\\gnu\\arm\\5.4.
 122              		.file 3 "c:\\program files (x86)\\cypress\\psoc creator\\4.3\\psoc creator\\import\\gnu\\arm\\5.4.
 123              		.file 4 "Generated_Source\\PSoC5/UART_1.h"
 124              		.file 5 "Generated_Source\\PSoC5/SPIM_1.h"
 125              		.file 6 "./SPI_handler.h"
 126              		.file 7 "Generated_Source\\PSoC5/CyLib.h"
 127              		.file 8 "./UART_handler.h"
 128              		.file 9 "Generated_Source\\PSoC5/core_cm3.h"