ARM GAS  C:\Users\Simon\AppData\Local\Temp\ccQY8bje.s 			page 1


   1              		.syntax unified
   2              		.cpu cortex-m3
   3              		.fpu softvfp
   4              		.eabi_attribute 20, 1
   5              		.eabi_attribute 21, 1
   6              		.eabi_attribute 23, 3
   7              		.eabi_attribute 24, 1
   8              		.eabi_attribute 25, 1
   9              		.eabi_attribute 26, 1
  10              		.eabi_attribute 30, 1
  11              		.eabi_attribute 34, 1
  12              		.eabi_attribute 18, 4
  13              		.thumb
  14              		.syntax unified
  15              		.file	"ADC.c"
  16              		.text
  17              	.Ltext0:
  18              		.cfi_sections	.debug_frame
  19              		.section	.text.ADC_init,"ax",%progbits
  20              		.align	2
  21              		.global	ADC_init
  22              		.thumb
  23              		.thumb_func
  24              		.type	ADC_init, %function
  25              	ADC_init:
  26              	.LFB64:
  27              		.file 1 "ADC.c"
   1:ADC.c         **** /* ========================================
   2:ADC.c         ****  *
   3:ADC.c         ****  * Copyright YOUR COMPANY, THE YEAR
   4:ADC.c         ****  * All Rights Reserved
   5:ADC.c         ****  * UNPUBLISHED, LICENSED SOFTWARE.
   6:ADC.c         ****  *
   7:ADC.c         ****  * CONFIDENTIAL AND PROPRIETARY INFORMATION
   8:ADC.c         ****  * WHICH IS THE PROPERTY OF your company.
   9:ADC.c         ****  *
  10:ADC.c         ****  * ========================================
  11:ADC.c         **** */
  12:ADC.c         **** #include "ADC.h"
  13:ADC.c         **** #include "project.h"
  14:ADC.c         **** #include <stdio.h>
  15:ADC.c         **** 
  16:ADC.c         **** void ADC_init()
  17:ADC.c         **** {
  28              		.loc 1 17 0
  29              		.cfi_startproc
  30              		@ args = 0, pretend = 0, frame = 0
  31              		@ frame_needed = 0, uses_anonymous_args = 0
  32 0000 08B5     		push	{r3, lr}
  33              		.cfi_def_cfa_offset 8
  34              		.cfi_offset 3, -8
  35              		.cfi_offset 14, -4
  18:ADC.c         ****     ADC_SAR_1_Start();
  36              		.loc 1 18 0
  37 0002 FFF7FEFF 		bl	ADC_SAR_1_Start
  38              	.LVL0:
  19:ADC.c         ****     ADC_SAR_1_StartConvert();
ARM GAS  C:\Users\Simon\AppData\Local\Temp\ccQY8bje.s 			page 2


  39              		.loc 1 19 0
  40 0006 FFF7FEFF 		bl	ADC_SAR_1_StartConvert
  41              	.LVL1:
  42 000a 08BD     		pop	{r3, pc}
  43              		.cfi_endproc
  44              	.LFE64:
  45              		.size	ADC_init, .-ADC_init
  46              		.global	__aeabi_i2d
  47              		.global	__aeabi_dmul
  48              		.global	__aeabi_dsub
  49              		.global	__aeabi_d2f
  50              		.global	__aeabi_f2d
  51              		.section	.text.ADC_Measure,"ax",%progbits
  52              		.align	2
  53              		.global	ADC_Measure
  54              		.thumb
  55              		.thumb_func
  56              		.type	ADC_Measure, %function
  57              	ADC_Measure:
  58              	.LFB65:
  20:ADC.c         **** }
  21:ADC.c         **** 
  22:ADC.c         **** void ADC_Measure()
  23:ADC.c         **** {
  59              		.loc 1 23 0
  60              		.cfi_startproc
  61              		@ args = 0, pretend = 0, frame = 512
  62              		@ frame_needed = 0, uses_anonymous_args = 0
  63 0000 10B5     		push	{r4, lr}
  64              		.cfi_def_cfa_offset 8
  65              		.cfi_offset 4, -8
  66              		.cfi_offset 14, -4
  67 0002 ADF5027D 		sub	sp, sp, #520
  68              		.cfi_def_cfa_offset 528
  24:ADC.c         ****       char uartBuffer[256];
  25:ADC.c         ****       char uartBuffer2[256];  
  26:ADC.c         ****     
  27:ADC.c         ****     if (ADC_SAR_1_IsEndConversion(ADC_SAR_1_WAIT_FOR_RESULT))
  69              		.loc 1 27 0
  70 0006 0020     		movs	r0, #0
  71 0008 FFF7FEFF 		bl	ADC_SAR_1_IsEndConversion
  72              	.LVL2:
  73 000c 40B3     		cbz	r0, .L3
  74              	.LBB2:
  28:ADC.c         ****         {
  29:ADC.c         ****             uint16_t result = ADC_SAR_1_GetResult16();
  75              		.loc 1 29 0
  76 000e FFF7FEFF 		bl	ADC_SAR_1_GetResult16
  77              	.LVL3:
  78 0012 84B2     		uxth	r4, r0
  79              	.LVL4:
  30:ADC.c         ****             snprintf(uartBuffer, sizeof(uartBuffer), "ADC result: 0x%x \r\n", result);
  80              		.loc 1 30 0
  81 0014 2346     		mov	r3, r4
  82 0016 184A     		ldr	r2, .L6+16
  83 0018 4FF48071 		mov	r1, #256
  84 001c 42A8     		add	r0, sp, #264
ARM GAS  C:\Users\Simon\AppData\Local\Temp\ccQY8bje.s 			page 3


  85 001e FFF7FEFF 		bl	snprintf
  86              	.LVL5:
  31:ADC.c         ****             UART_1_PutString(uartBuffer);
  87              		.loc 1 31 0
  88 0022 42A8     		add	r0, sp, #264
  89 0024 FFF7FEFF 		bl	UART_1_PutString
  90              	.LVL6:
  32:ADC.c         ****             
  33:ADC.c         ****             float kg = 0.0005 * result - 0.0553;
  91              		.loc 1 33 0
  92 0028 2046     		mov	r0, r4
  93 002a FFF7FEFF 		bl	__aeabi_i2d
  94              	.LVL7:
  95 002e 0EA3     		adr	r3, .L6
  96 0030 D3E90023 		ldrd	r2, [r3]
  97 0034 FFF7FEFF 		bl	__aeabi_dmul
  98              	.LVL8:
  99 0038 0DA3     		adr	r3, .L6+8
 100 003a D3E90023 		ldrd	r2, [r3]
 101 003e FFF7FEFF 		bl	__aeabi_dsub
 102              	.LVL9:
 103 0042 FFF7FEFF 		bl	__aeabi_d2f
 104              	.LVL10:
  34:ADC.c         ****             snprintf(uartBuffer2, sizeof(uartBuffer2), "Kg result: %f \r\n", kg);
 105              		.loc 1 34 0
 106 0046 FFF7FEFF 		bl	__aeabi_f2d
 107              	.LVL11:
 108 004a CDE90001 		strd	r0, [sp]
 109 004e 0B4A     		ldr	r2, .L6+20
 110 0050 4FF48071 		mov	r1, #256
 111 0054 02A8     		add	r0, sp, #8
 112 0056 FFF7FEFF 		bl	snprintf
 113              	.LVL12:
  35:ADC.c         ****             UART_1_PutString(uartBuffer2); 
 114              		.loc 1 35 0
 115 005a 02A8     		add	r0, sp, #8
 116 005c FFF7FEFF 		bl	UART_1_PutString
 117              	.LVL13:
 118              	.L3:
 119              	.LBE2:
  36:ADC.c         ****             
  37:ADC.c         ****         }   
  38:ADC.c         **** }
 120              		.loc 1 38 0
 121 0060 0DF5027D 		add	sp, sp, #520
 122              		.cfi_def_cfa_offset 8
 123              		@ sp needed
 124 0064 10BD     		pop	{r4, pc}
 125              	.L7:
 126 0066 00BF     		.align	3
 127              	.L6:
 128 0068 FCA9F1D2 		.word	-755914244
 129 006c 4D62403F 		.word	1061184077
 130 0070 8E06F016 		.word	384829070
 131 0074 4850AC3F 		.word	1068257352
 132 0078 00000000 		.word	.LC0
 133 007c 14000000 		.word	.LC1
ARM GAS  C:\Users\Simon\AppData\Local\Temp\ccQY8bje.s 			page 4


 134              		.cfi_endproc
 135              	.LFE65:
 136              		.size	ADC_Measure, .-ADC_Measure
 137              		.section	.rodata.str1.4,"aMS",%progbits,1
 138              		.align	2
 139              	.LC0:
 140 0000 41444320 		.ascii	"ADC result: 0x%x \015\012\000"
 140      72657375 
 140      6C743A20 
 140      30782578 
 140      200D0A00 
 141              	.LC1:
 142 0014 4B672072 		.ascii	"Kg result: %f \015\012\000"
 142      6573756C 
 142      743A2025 
 142      66200D0A 
 142      00
 143              		.text
 144              	.Letext0:
 145              		.file 2 "c:\\program files (x86)\\cypress\\psoc creator\\4.3\\psoc creator\\import\\gnu\\arm\\5.4.
 146              		.file 3 "c:\\program files (x86)\\cypress\\psoc creator\\4.3\\psoc creator\\import\\gnu\\arm\\5.4.
 147              		.file 4 "Generated_Source\\PSoC5/ADC_SAR_1.h"
 148              		.file 5 "c:\\program files (x86)\\cypress\\psoc creator\\4.3\\psoc creator\\import\\gnu\\arm\\5.4.
 149              		.file 6 "Generated_Source\\PSoC5/UART_1.h"
 150              		.file 7 "Generated_Source\\PSoC5/core_cm3.h"