ARM GAS  C:\Users\Lucas\AppData\Local\Temp\ccUzaoqb.s 			page 1


   1              		.syntax unified
   2              		.cpu cortex-m3
   3              		.fpu softvfp
   4              		.eabi_attribute 20, 1
   5              		.eabi_attribute 21, 1
   6              		.eabi_attribute 23, 3
   7              		.eabi_attribute 24, 1
   8              		.eabi_attribute 25, 1
   9              		.eabi_attribute 26, 1
  10              		.eabi_attribute 30, 1
  11              		.eabi_attribute 34, 1
  12              		.eabi_attribute 18, 4
  13              		.thumb
  14              		.syntax unified
  15              		.file	"main.c"
  16              		.text
  17              	.Ltext0:
  18              		.cfi_sections	.debug_frame
  19              		.section	.text.ISR_UART_rx_handler,"ax",%progbits
  20              		.align	2
  21              		.global	ISR_UART_rx_handler
  22              		.thumb
  23              		.thumb_func
  24              		.type	ISR_UART_rx_handler, %function
  25              	ISR_UART_rx_handler:
  26              	.LFB65:
  27              		.file 1 "main.c"
   1:main.c        **** /* ========================================
   2:main.c        ****  *
   3:main.c        ****  * Copyright YOUR COMPANY, THE YEAR
   4:main.c        ****  * All Rights Reserved
   5:main.c        ****  * UNPUBLISHED, LICENSED SOFTWARE.
   6:main.c        ****  *
   7:main.c        ****  * CONFIDENTIAL AND PROPRIETARY INFORMATION
   8:main.c        ****  * WHICH IS THE PROPERTY OF your company.
   9:main.c        ****  *
  10:main.c        ****  * ========================================
  11:main.c        **** */
  12:main.c        **** #include <project.h>
  13:main.c        **** #include <stdio.h>
  14:main.c        **** #include <stdint.h>
  15:main.c        **** 
  16:main.c        **** #include <UART_handler.h>
  17:main.c        **** #include <SPI_Slave.h>
  18:main.c        **** 
  19:main.c        **** CY_ISR_PROTO(ISR_UART_rx_handler);
  20:main.c        **** CY_ISR_PROTO(SPIS_rx_handler);
  21:main.c        **** 
  22:main.c        **** int main(void)
  23:main.c        **** {
  24:main.c        ****     CyGlobalIntEnable; /* Enable global interrupts. */
  25:main.c        ****     isruart_StartEx(ISR_UART_rx_handler);
  26:main.c        ****     isrspis_StartEx(SPIS_rx_handler);
  27:main.c        ****     /* Place your initialization/startup code here (e.g. MyInst_Start()) */
  28:main.c        ****     UART_1_Start();
  29:main.c        ****     SPIS_1_Start();
  30:main.c        ****     SPIS_1_ClearRxBuffer(); // Clear Rx buffer en gang i starten.
ARM GAS  C:\Users\Lucas\AppData\Local\Temp\ccUzaoqb.s 			page 2


  31:main.c        ****     
  32:main.c        ****     for(;;)
  33:main.c        ****     {
  34:main.c        ****         
  35:main.c        ****         /* Place your application code here. */
  36:main.c        ****         
  37:main.c        ****     }
  38:main.c        **** }
  39:main.c        **** 
  40:main.c        **** CY_ISR(ISR_UART_rx_handler)
  41:main.c        **** {
  28              		.loc 1 41 0
  29              		.cfi_startproc
  30              		@ args = 0, pretend = 0, frame = 0
  31              		@ frame_needed = 0, uses_anonymous_args = 0
  32 0000 10B5     		push	{r4, lr}
  33              		.cfi_def_cfa_offset 8
  34              		.cfi_offset 4, -8
  35              		.cfi_offset 14, -4
  42:main.c        ****     uint8_t bytesToRead = UART_1_GetRxBufferSize(); // Aflæs bytes fra UART Master
  36              		.loc 1 42 0
  37 0002 FFF7FEFF 		bl	UART_1_GetRxBufferSize
  38              	.LVL0:
  39 0006 0446     		mov	r4, r0
  40              	.LVL1:
  43:main.c        ****     while (bytesToRead > 0)
  41              		.loc 1 43 0
  42 0008 05E0     		b	.L2
  43              	.L3:
  44              	.LBB2:
  44:main.c        ****     {
  45:main.c        ****         uint8_t byteReceived = UART_1_ReadRxData();  // Aflæs bytes fra UART
  45              		.loc 1 45 0
  46 000a FFF7FEFF 		bl	UART_1_ReadRxData
  47              	.LVL2:
  46:main.c        ****         UART_1_WriteTxData(byteReceived); // echo back
  48              		.loc 1 46 0
  49 000e FFF7FEFF 		bl	UART_1_WriteTxData
  50              	.LVL3:
  47:main.c        **** //        SPIS_1_WriteTxData(byteReceived);  //Skriv bytes til SPI master
  48:main.c        **** //        handleByteReceived(byteReceived);
  49:main.c        ****         
  50:main.c        ****         bytesToRead--;
  51              		.loc 1 50 0
  52 0012 013C     		subs	r4, r4, #1
  53              	.LVL4:
  54 0014 E4B2     		uxtb	r4, r4
  55              	.LVL5:
  56              	.L2:
  57              	.LBE2:
  43:main.c        ****     {
  58              		.loc 1 43 0
  59 0016 002C     		cmp	r4, #0
  60 0018 F7D1     		bne	.L3
  51:main.c        ****     }
  52:main.c        **** }
  61              		.loc 1 52 0
ARM GAS  C:\Users\Lucas\AppData\Local\Temp\ccUzaoqb.s 			page 3


  62 001a 10BD     		pop	{r4, pc}
  63              		.cfi_endproc
  64              	.LFE65:
  65              		.size	ISR_UART_rx_handler, .-ISR_UART_rx_handler
  66              		.section	.text.SPIS_rx_handler,"ax",%progbits
  67              		.align	2
  68              		.global	SPIS_rx_handler
  69              		.thumb
  70              		.thumb_func
  71              		.type	SPIS_rx_handler, %function
  72              	SPIS_rx_handler:
  73              	.LFB66:
  53:main.c        **** CY_ISR(SPIS_rx_handler)
  54:main.c        **** {
  74              		.loc 1 54 0
  75              		.cfi_startproc
  76              		@ args = 0, pretend = 0, frame = 0
  77              		@ frame_needed = 0, uses_anonymous_args = 0
  78 0000 10B5     		push	{r4, lr}
  79              		.cfi_def_cfa_offset 8
  80              		.cfi_offset 4, -8
  81              		.cfi_offset 14, -4
  55:main.c        ****     uint8_t bytesToRead = SPIS_1_GetRxBufferSize();  // SPI Master rx interrupt få size
  82              		.loc 1 55 0
  83 0002 FFF7FEFF 		bl	SPIS_1_GetRxBufferSize
  84              	.LVL6:
  85 0006 0446     		mov	r4, r0
  86              	.LVL7:
  56:main.c        ****     while (bytesToRead > 0)
  87              		.loc 1 56 0
  88 0008 05E0     		b	.L6
  89              	.L7:
  90              	.LBB3:
  57:main.c        ****     {
  58:main.c        ****         uint8_t byteReceived = SPIS_1_ReadRxData(); // Aflæs Rx data    
  91              		.loc 1 58 0
  92 000a FFF7FEFF 		bl	SPIS_1_ReadRxData
  93              	.LVL8:
  59:main.c        ****         SPIS_handleByteReceived(byteReceived); 
  94              		.loc 1 59 0
  95 000e FFF7FEFF 		bl	SPIS_handleByteReceived
  96              	.LVL9:
  60:main.c        ****         bytesToRead--;
  97              		.loc 1 60 0
  98 0012 013C     		subs	r4, r4, #1
  99              	.LVL10:
 100 0014 E4B2     		uxtb	r4, r4
 101              	.LVL11:
 102              	.L6:
 103              	.LBE3:
  56:main.c        ****     {
 104              		.loc 1 56 0
 105 0016 002C     		cmp	r4, #0
 106 0018 F7D1     		bne	.L7
  61:main.c        ****     }
  62:main.c        **** }
 107              		.loc 1 62 0
ARM GAS  C:\Users\Lucas\AppData\Local\Temp\ccUzaoqb.s 			page 4


 108 001a 10BD     		pop	{r4, pc}
 109              		.cfi_endproc
 110              	.LFE66:
 111              		.size	SPIS_rx_handler, .-SPIS_rx_handler
 112              		.section	.text.main,"ax",%progbits
 113              		.align	2
 114              		.global	main
 115              		.thumb
 116              		.thumb_func
 117              		.type	main, %function
 118              	main:
 119              	.LFB64:
  23:main.c        ****     CyGlobalIntEnable; /* Enable global interrupts. */
 120              		.loc 1 23 0
 121              		.cfi_startproc
 122              		@ Volatile: function does not return.
 123              		@ args = 0, pretend = 0, frame = 0
 124              		@ frame_needed = 0, uses_anonymous_args = 0
 125 0000 08B5     		push	{r3, lr}
 126              		.cfi_def_cfa_offset 8
 127              		.cfi_offset 3, -8
 128              		.cfi_offset 14, -4
  24:main.c        ****     isruart_StartEx(ISR_UART_rx_handler);
 129              		.loc 1 24 0
 130              		.syntax unified
 131              	@ 24 "main.c" 1
 132 0002 62B6     		CPSIE   i
 133              	@ 0 "" 2
  25:main.c        ****     isrspis_StartEx(SPIS_rx_handler);
 134              		.loc 1 25 0
 135              		.thumb
 136              		.syntax unified
 137 0004 0648     		ldr	r0, .L12
 138 0006 FFF7FEFF 		bl	isruart_StartEx
 139              	.LVL12:
  26:main.c        ****     /* Place your initialization/startup code here (e.g. MyInst_Start()) */
 140              		.loc 1 26 0
 141 000a 0648     		ldr	r0, .L12+4
 142 000c FFF7FEFF 		bl	isrspis_StartEx
 143              	.LVL13:
  28:main.c        ****     SPIS_1_Start();
 144              		.loc 1 28 0
 145 0010 FFF7FEFF 		bl	UART_1_Start
 146              	.LVL14:
  29:main.c        ****     SPIS_1_ClearRxBuffer(); // Clear Rx buffer en gang i starten.
 147              		.loc 1 29 0
 148 0014 FFF7FEFF 		bl	SPIS_1_Start
 149              	.LVL15:
  30:main.c        ****     
 150              		.loc 1 30 0
 151 0018 FFF7FEFF 		bl	SPIS_1_ClearRxBuffer
 152              	.LVL16:
 153              	.L10:
 154 001c FEE7     		b	.L10
 155              	.L13:
 156 001e 00BF     		.align	2
 157              	.L12:
ARM GAS  C:\Users\Lucas\AppData\Local\Temp\ccUzaoqb.s 			page 5


 158 0020 00000000 		.word	ISR_UART_rx_handler
 159 0024 00000000 		.word	SPIS_rx_handler
 160              		.cfi_endproc
 161              	.LFE64:
 162              		.size	main, .-main
 163              		.text
 164              	.Letext0:
 165              		.file 2 "c:\\program files (x86)\\cypress\\psoc creator\\4.3\\psoc creator\\import\\gnu\\arm\\5.4.
 166              		.file 3 "c:\\program files (x86)\\cypress\\psoc creator\\4.3\\psoc creator\\import\\gnu\\arm\\5.4.
 167              		.file 4 "Generated_Source\\PSoC5/UART_1.h"
 168              		.file 5 "Generated_Source\\PSoC5/SPIS_1.h"
 169              		.file 6 "./SPI_Slave.h"
 170              		.file 7 "Generated_Source\\PSoC5/isruart.h"
 171              		.file 8 "Generated_Source\\PSoC5/isrspis.h"
 172              		.file 9 "Generated_Source\\PSoC5/core_cm3.h"