ARM GAS  C:\Users\Lucas\AppData\Local\Temp\cc5wikjD.s 			page 1


   1              		.syntax unified
   2              		.cpu cortex-m3
   3              		.fpu softvfp
   4              		.eabi_attribute 20, 1
   5              		.eabi_attribute 21, 1
   6              		.eabi_attribute 23, 3
   7              		.eabi_attribute 24, 1
   8              		.eabi_attribute 25, 1
   9              		.eabi_attribute 26, 1
  10              		.eabi_attribute 30, 1
  11              		.eabi_attribute 34, 1
  12              		.eabi_attribute 18, 4
  13              		.thumb
  14              		.syntax unified
  15              		.file	"SPI_Slave.c"
  16              		.text
  17              	.Ltext0:
  18              		.cfi_sections	.debug_frame
  19              		.section	.text.buttonState,"ax",%progbits
  20              		.align	2
  21              		.global	buttonState
  22              		.thumb
  23              		.thumb_func
  24              		.type	buttonState, %function
  25              	buttonState:
  26              	.LFB64:
  27              		.file 1 "SPI_Slave.c"
   1:SPI_Slave.c   **** /* ========================================
   2:SPI_Slave.c   ****  *
   3:SPI_Slave.c   ****  * Copyright YOUR COMPANY, THE YEAR
   4:SPI_Slave.c   ****  * All Rights Reserved
   5:SPI_Slave.c   ****  * UNPUBLISHED, LICENSED SOFTWARE.
   6:SPI_Slave.c   ****  *
   7:SPI_Slave.c   ****  * CONFIDENTIAL AND PROPRIETARY INFORMATION
   8:SPI_Slave.c   ****  * WHICH IS THE PROPERTY OF your company.
   9:SPI_Slave.c   ****  *
  10:SPI_Slave.c   ****  * ========================================
  11:SPI_Slave.c   **** */
  12:SPI_Slave.c   **** #include <SPI_Slave.h>
  13:SPI_Slave.c   **** #include <project.h>
  14:SPI_Slave.c   **** #define LED_ON 1
  15:SPI_Slave.c   **** #define LED_OFF 0
  16:SPI_Slave.c   **** int status;
  17:SPI_Slave.c   **** int tx_buf;
  18:SPI_Slave.c   **** 
  19:SPI_Slave.c   **** void buttonState()
  20:SPI_Slave.c   **** {
  28              		.loc 1 20 0
  29              		.cfi_startproc
  30              		@ args = 0, pretend = 0, frame = 0
  31              		@ frame_needed = 0, uses_anonymous_args = 0
  32 0000 08B5     		push	{r3, lr}
  33              		.cfi_def_cfa_offset 8
  34              		.cfi_offset 3, -8
  35              		.cfi_offset 14, -4
  21:SPI_Slave.c   ****      if(Pin_2_Read() == 00000001)
  36              		.loc 1 21 0
ARM GAS  C:\Users\Lucas\AppData\Local\Temp\cc5wikjD.s 			page 2


  37 0002 FFF7FEFF 		bl	Pin_2_Read
  38              	.LVL0:
  39 0006 0128     		cmp	r0, #1
  40 0008 02D1     		bne	.L2
  22:SPI_Slave.c   ****      {
  23:SPI_Slave.c   ****          SPIS_1_WriteTxData(1);
  41              		.loc 1 23 0
  42 000a FFF7FEFF 		bl	SPIS_1_WriteTxData
  43              	.LVL1:
  44 000e 08BD     		pop	{r3, pc}
  45              	.L2:
  24:SPI_Slave.c   ****      }
  25:SPI_Slave.c   ****      else if(Pin_2_Read() == 00000000)
  46              		.loc 1 25 0
  47 0010 FFF7FEFF 		bl	Pin_2_Read
  48              	.LVL2:
  49 0014 08B9     		cbnz	r0, .L1
  26:SPI_Slave.c   ****      {
  27:SPI_Slave.c   ****           SPIS_1_WriteTxData(0);
  50              		.loc 1 27 0
  51 0016 FFF7FEFF 		bl	SPIS_1_WriteTxData
  52              	.LVL3:
  53              	.L1:
  54 001a 08BD     		pop	{r3, pc}
  55              		.cfi_endproc
  56              	.LFE64:
  57              		.size	buttonState, .-buttonState
  58              		.section	.text.SPIS_handleByteReceived,"ax",%progbits
  59              		.align	2
  60              		.global	SPIS_handleByteReceived
  61              		.thumb
  62              		.thumb_func
  63              		.type	SPIS_handleByteReceived, %function
  64              	SPIS_handleByteReceived:
  65              	.LFB65:
  28:SPI_Slave.c   ****      }            
  29:SPI_Slave.c   **** }
  30:SPI_Slave.c   **** 
  31:SPI_Slave.c   **** 
  32:SPI_Slave.c   **** void SPIS_handleByteReceived(uint8_t byteReceived)
  33:SPI_Slave.c   **** {
  66              		.loc 1 33 0
  67              		.cfi_startproc
  68              		@ args = 0, pretend = 0, frame = 0
  69              		@ frame_needed = 0, uses_anonymous_args = 0
  70              	.LVL4:
  71 0000 10B5     		push	{r4, lr}
  72              		.cfi_def_cfa_offset 8
  73              		.cfi_offset 4, -8
  74              		.cfi_offset 14, -4
  75 0002 0446     		mov	r4, r0
  34:SPI_Slave.c   ****     if(byteReceived=='b')
  76              		.loc 1 34 0
  77 0004 6228     		cmp	r0, #98
  78 0006 22D1     		bne	.L6
  35:SPI_Slave.c   ****     {
  36:SPI_Slave.c   ****         switch(status)
ARM GAS  C:\Users\Lucas\AppData\Local\Temp\cc5wikjD.s 			page 3


  79              		.loc 1 36 0
  80 0008 144B     		ldr	r3, .L11
  81 000a 1B68     		ldr	r3, [r3]
  82 000c 83B1     		cbz	r3, .L8
  83 000e 012B     		cmp	r3, #1
  84 0010 1FD1     		bne	.L7
  37:SPI_Slave.c   ****         {
  38:SPI_Slave.c   ****             case LED_ON:
  39:SPI_Slave.c   ****                 status=LED_OFF;
  85              		.loc 1 39 0
  86 0012 0022     		movs	r2, #0
  87 0014 114B     		ldr	r3, .L11
  88 0016 1A60     		str	r2, [r3]
  40:SPI_Slave.c   ****                 Pin_1_Write(~Pin_1_Read()); // Toggle LED
  89              		.loc 1 40 0
  90 0018 FFF7FEFF 		bl	Pin_1_Read
  91              	.LVL5:
  92 001c C043     		mvns	r0, r0
  93 001e C0B2     		uxtb	r0, r0
  94 0020 FFF7FEFF 		bl	Pin_1_Write
  95              	.LVL6:
  41:SPI_Slave.c   ****                 UART_1_WriteTxData(byteReceived); // Skriv UART hvad fået
  96              		.loc 1 41 0
  97 0024 2046     		mov	r0, r4
  98 0026 FFF7FEFF 		bl	UART_1_WriteTxData
  99              	.LVL7:
  42:SPI_Slave.c   ****                 // Skrive til SPIM fra SPIS
  43:SPI_Slave.c   ****                 buttonState();
 100              		.loc 1 43 0
 101 002a FFF7FEFF 		bl	buttonState
 102              	.LVL8:
  44:SPI_Slave.c   ****                
  45:SPI_Slave.c   ****             break;
 103              		.loc 1 45 0
 104 002e 10E0     		b	.L7
 105              	.LVL9:
 106              	.L8:
  46:SPI_Slave.c   ****             
  47:SPI_Slave.c   ****             case LED_OFF:
  48:SPI_Slave.c   ****                 status=LED_ON;
 107              		.loc 1 48 0
 108 0030 0122     		movs	r2, #1
 109 0032 0A4B     		ldr	r3, .L11
 110 0034 1A60     		str	r2, [r3]
  49:SPI_Slave.c   ****                 Pin_1_Write(~Pin_1_Read());
 111              		.loc 1 49 0
 112 0036 FFF7FEFF 		bl	Pin_1_Read
 113              	.LVL10:
 114 003a C043     		mvns	r0, r0
 115 003c C0B2     		uxtb	r0, r0
 116 003e FFF7FEFF 		bl	Pin_1_Write
 117              	.LVL11:
  50:SPI_Slave.c   ****                 UART_1_WriteTxData(byteReceived);
 118              		.loc 1 50 0
 119 0042 2046     		mov	r0, r4
 120 0044 FFF7FEFF 		bl	UART_1_WriteTxData
 121              	.LVL12:
ARM GAS  C:\Users\Lucas\AppData\Local\Temp\cc5wikjD.s 			page 4


  51:SPI_Slave.c   ****                 buttonState();   
 122              		.loc 1 51 0
 123 0048 FFF7FEFF 		bl	buttonState
 124              	.LVL13:
  52:SPI_Slave.c   ****               
  53:SPI_Slave.c   ****             break;
 125              		.loc 1 53 0
 126 004c 01E0     		b	.L7
 127              	.LVL14:
 128              	.L6:
  54:SPI_Slave.c   ****         }
  55:SPI_Slave.c   ****     }
  56:SPI_Slave.c   ****     else
  57:SPI_Slave.c   ****     {
  58:SPI_Slave.c   ****     UART_1_WriteTxData(byteReceived);
 129              		.loc 1 58 0
 130 004e FFF7FEFF 		bl	UART_1_WriteTxData
 131              	.LVL15:
 132              	.L7:
  59:SPI_Slave.c   ****     }
  60:SPI_Slave.c   ****     
  61:SPI_Slave.c   ****     tx_buf = status;
 133              		.loc 1 61 0
 134 0052 024B     		ldr	r3, .L11
 135 0054 1A68     		ldr	r2, [r3]
 136 0056 024B     		ldr	r3, .L11+4
 137 0058 1A60     		str	r2, [r3]
 138 005a 10BD     		pop	{r4, pc}
 139              	.L12:
 140              		.align	2
 141              	.L11:
 142 005c 00000000 		.word	status
 143 0060 00000000 		.word	tx_buf
 144              		.cfi_endproc
 145              	.LFE65:
 146              		.size	SPIS_handleByteReceived, .-SPIS_handleByteReceived
 147              		.comm	tx_buf,4,4
 148              		.comm	status,4,4
 149              		.text
 150              	.Letext0:
 151              		.file 2 "c:\\program files (x86)\\cypress\\psoc creator\\4.3\\psoc creator\\import\\gnu\\arm\\5.4.
 152              		.file 3 "c:\\program files (x86)\\cypress\\psoc creator\\4.3\\psoc creator\\import\\gnu\\arm\\5.4.
 153              		.file 4 "Generated_Source\\PSoC5/core_cm3.h"
 154              		.file 5 "Generated_Source\\PSoC5/Pin_2.h"
 155              		.file 6 "Generated_Source\\PSoC5/SPIS_1.h"
 156              		.file 7 "Generated_Source\\PSoC5/Pin_1.h"
 157              		.file 8 "Generated_Source\\PSoC5/UART_1.h"