ARM GAS  C:\Users\Simon\AppData\Local\Temp\cc4n88q8.s 			page 1


   1              		.syntax unified
   2              		.cpu cortex-m3
   3              		.fpu softvfp
   4              		.eabi_attribute 20, 1
   5              		.eabi_attribute 21, 1
   6              		.eabi_attribute 23, 3
   7              		.eabi_attribute 24, 1
   8              		.eabi_attribute 25, 1
   9              		.eabi_attribute 26, 1
  10              		.eabi_attribute 30, 1
  11              		.eabi_attribute 34, 1
  12              		.eabi_attribute 18, 4
  13              		.thumb
  14              		.syntax unified
  15              		.file	"I2C_handler.c"
  16              		.text
  17              	.Ltext0:
  18              		.cfi_sections	.debug_frame
  19              		.global	__aeabi_f2d
  20              		.section	.text.writeTempToUART,"ax",%progbits
  21              		.align	2
  22              		.global	writeTempToUART
  23              		.thumb
  24              		.thumb_func
  25              		.type	writeTempToUART, %function
  26              	writeTempToUART:
  27              	.LFB65:
  28              		.file 1 "I2C_handler.c"
   1:I2C_handler.c **** /* ========================================
   2:I2C_handler.c ****  *
   3:I2C_handler.c ****  * Copyright YOUR COMPANY, THE YEAR
   4:I2C_handler.c ****  * All Rights Reserved
   5:I2C_handler.c ****  * UNPUBLISHED, LICENSED SOFTWARE.
   6:I2C_handler.c ****  *
   7:I2C_handler.c ****  * CONFIDENTIAL AND PROPRIETARY INFORMATION
   8:I2C_handler.c ****  * WHICH IS THE PROPERTY OF your company.
   9:I2C_handler.c ****  *
  10:I2C_handler.c ****  * ========================================
  11:I2C_handler.c **** */
  12:I2C_handler.c **** #include <I2C_handler.h>
  13:I2C_handler.c **** 
  14:I2C_handler.c **** #include <project.h>
  15:I2C_handler.c **** #include <stdio.h>
  16:I2C_handler.c **** #include <stdlib.h>
  17:I2C_handler.c **** #include <stdint.h>
  18:I2C_handler.c **** 
  19:I2C_handler.c **** 
  20:I2C_handler.c **** void readTemp()
  21:I2C_handler.c **** {
  22:I2C_handler.c ****     //Variabler 
  23:I2C_handler.c ****     uint8 b1,b2;
  24:I2C_handler.c ****     uint8 slaveAddress = 36;
  25:I2C_handler.c ****     uint8 readCommand = 1;
  26:I2C_handler.c ****     uint8 I2C_MSTR_NO_ERROR;
  27:I2C_handler.c ****     int16_t tempData;
  28:I2C_handler.c ****     float temp;
  29:I2C_handler.c ****     
ARM GAS  C:\Users\Simon\AppData\Local\Temp\cc4n88q8.s 			page 2


  30:I2C_handler.c ****     //1001 A2 A1 A0  Alle A'er er modsat ON = 0 
  31:I2C_handler.c ****     uint8 status = I2C_1_MasterSendStart(slaveAddress,readCommand);
  32:I2C_handler.c ****     
  33:I2C_handler.c ****     if (status == I2C_MSTR_NO_ERROR)
  34:I2C_handler.c ****     {
  35:I2C_handler.c ****         // Læser første byte i register MSB første 8 bit
  36:I2C_handler.c ****             b1 = I2C_1_MasterReadByte(I2C_1_ACK_DATA);  
  37:I2C_handler.c ****             UART_1_PutString("b1 success");
  38:I2C_handler.c ****         // Læser anden byte i register, sidste byte er NAKed  // LSB sidste 8 bit
  39:I2C_handler.c ****             b2 = I2C_1_MasterReadByte(I2C_1_NAK_DATA);
  40:I2C_handler.c ****             UART_1_PutString("b2 success");
  41:I2C_handler.c ****         //    MasterSendStop
  42:I2C_handler.c ****             I2C_1_MasterSendStop();        
  43:I2C_handler.c ****         //    Combine bytes to a temperature (2 Komplement konvert)
  44:I2C_handler.c ****             tempData = b1 | b2 ;
  45:I2C_handler.c ****         // Data skal aflæses som 2 komplements int så fortegn er korrekt
  46:I2C_handler.c ****             temp = tempData / 256;
  47:I2C_handler.c ****         //    Send temperature to UART
  48:I2C_handler.c ****             writeTempToUART(temp);
  49:I2C_handler.c ****     }
  50:I2C_handler.c ****     else {
  51:I2C_handler.c **** //    report error on UART
  52:I2C_handler.c ****       UART_1_PutString("Error I2C");  
  53:I2C_handler.c **** //    MasterSendStop
  54:I2C_handler.c ****       I2C_1_MasterSendStop();
  55:I2C_handler.c ****     }  
  56:I2C_handler.c **** }
  57:I2C_handler.c **** // Udprintning til UART temperaturen
  58:I2C_handler.c **** void writeTempToUART(float temp)
  59:I2C_handler.c **** {
  29              		.loc 1 59 0
  30              		.cfi_startproc
  31              		@ args = 0, pretend = 0, frame = 256
  32              		@ frame_needed = 0, uses_anonymous_args = 0
  33              	.LVL0:
  34 0000 00B5     		push	{lr}
  35              		.cfi_def_cfa_offset 4
  36              		.cfi_offset 14, -4
  37 0002 C3B0     		sub	sp, sp, #268
  38              		.cfi_def_cfa_offset 272
  60:I2C_handler.c ****     char outputBuffer[256];
  61:I2C_handler.c ****     snprintf(outputBuffer, sizeof(outputBuffer), "Temp: %f \r\n", temp);
  39              		.loc 1 61 0
  40 0004 FFF7FEFF 		bl	__aeabi_f2d
  41              	.LVL1:
  42 0008 CDE90001 		strd	r0, [sp]
  43 000c 054A     		ldr	r2, .L3
  44 000e 4FF48071 		mov	r1, #256
  45 0012 02A8     		add	r0, sp, #8
  46 0014 FFF7FEFF 		bl	snprintf
  47              	.LVL2:
  62:I2C_handler.c ****     UART_1_PutString(outputBuffer);
  48              		.loc 1 62 0
  49 0018 02A8     		add	r0, sp, #8
  50 001a FFF7FEFF 		bl	UART_1_PutString
  51              	.LVL3:
  63:I2C_handler.c **** }
ARM GAS  C:\Users\Simon\AppData\Local\Temp\cc4n88q8.s 			page 3


  52              		.loc 1 63 0
  53 001e 43B0     		add	sp, sp, #268
  54              		.cfi_def_cfa_offset 4
  55              		@ sp needed
  56 0020 5DF804FB 		ldr	pc, [sp], #4
  57              	.L4:
  58              		.align	2
  59              	.L3:
  60 0024 00000000 		.word	.LC0
  61              		.cfi_endproc
  62              	.LFE65:
  63              		.size	writeTempToUART, .-writeTempToUART
  64              		.global	__aeabi_i2f
  65              		.section	.text.readTemp,"ax",%progbits
  66              		.align	2
  67              		.global	readTemp
  68              		.thumb
  69              		.thumb_func
  70              		.type	readTemp, %function
  71              	readTemp:
  72              	.LFB64:
  21:I2C_handler.c ****     //Variabler 
  73              		.loc 1 21 0
  74              		.cfi_startproc
  75              		@ args = 0, pretend = 0, frame = 0
  76              		@ frame_needed = 0, uses_anonymous_args = 0
  77 0000 38B5     		push	{r3, r4, r5, lr}
  78              		.cfi_def_cfa_offset 16
  79              		.cfi_offset 3, -16
  80              		.cfi_offset 4, -12
  81              		.cfi_offset 5, -8
  82              		.cfi_offset 14, -4
  83              	.LVL4:
  31:I2C_handler.c ****     
  84              		.loc 1 31 0
  85 0002 0121     		movs	r1, #1
  86 0004 2420     		movs	r0, #36
  87 0006 FFF7FEFF 		bl	I2C_1_MasterSendStart
  88              	.LVL5:
  33:I2C_handler.c ****     {
  89              		.loc 1 33 0
  90 000a C8B9     		cbnz	r0, .L6
  36:I2C_handler.c ****             UART_1_PutString("b1 success");
  91              		.loc 1 36 0
  92 000c 0120     		movs	r0, #1
  93              	.LVL6:
  94 000e FFF7FEFF 		bl	I2C_1_MasterReadByte
  95              	.LVL7:
  96 0012 0546     		mov	r5, r0
  97              	.LVL8:
  37:I2C_handler.c ****         // Læser anden byte i register, sidste byte er NAKed  // LSB sidste 8 bit
  98              		.loc 1 37 0
  99 0014 0D48     		ldr	r0, .L10
 100 0016 FFF7FEFF 		bl	UART_1_PutString
 101              	.LVL9:
  39:I2C_handler.c ****             UART_1_PutString("b2 success");
 102              		.loc 1 39 0
ARM GAS  C:\Users\Simon\AppData\Local\Temp\cc4n88q8.s 			page 4


 103 001a 0020     		movs	r0, #0
 104 001c FFF7FEFF 		bl	I2C_1_MasterReadByte
 105              	.LVL10:
 106 0020 0446     		mov	r4, r0
 107              	.LVL11:
  40:I2C_handler.c ****         //    MasterSendStop
 108              		.loc 1 40 0
 109 0022 0B48     		ldr	r0, .L10+4
 110 0024 FFF7FEFF 		bl	UART_1_PutString
 111              	.LVL12:
  42:I2C_handler.c ****         //    Combine bytes to a temperature (2 Komplement konvert)
 112              		.loc 1 42 0
 113 0028 FFF7FEFF 		bl	I2C_1_MasterSendStop
 114              	.LVL13:
  44:I2C_handler.c ****         // Data skal aflæses som 2 komplements int så fortegn er korrekt
 115              		.loc 1 44 0
 116 002c 45EA0400 		orr	r0, r5, r4
  46:I2C_handler.c ****         //    Send temperature to UART
 117              		.loc 1 46 0
 118 0030 00F0FF00 		and	r0, r0, #255
 119 0034 0012     		asrs	r0, r0, #8
 120 0036 FFF7FEFF 		bl	__aeabi_i2f
 121              	.LVL14:
  48:I2C_handler.c ****     }
 122              		.loc 1 48 0
 123 003a FFF7FEFF 		bl	writeTempToUART
 124              	.LVL15:
 125 003e 38BD     		pop	{r3, r4, r5, pc}
 126              	.LVL16:
 127              	.L6:
  52:I2C_handler.c **** //    MasterSendStop
 128              		.loc 1 52 0
 129 0040 0448     		ldr	r0, .L10+8
 130              	.LVL17:
 131 0042 FFF7FEFF 		bl	UART_1_PutString
 132              	.LVL18:
  54:I2C_handler.c ****     }  
 133              		.loc 1 54 0
 134 0046 FFF7FEFF 		bl	I2C_1_MasterSendStop
 135              	.LVL19:
 136 004a 38BD     		pop	{r3, r4, r5, pc}
 137              	.L11:
 138              		.align	2
 139              	.L10:
 140 004c 0C000000 		.word	.LC1
 141 0050 18000000 		.word	.LC2
 142 0054 24000000 		.word	.LC3
 143              		.cfi_endproc
 144              	.LFE64:
 145              		.size	readTemp, .-readTemp
 146              		.section	.rodata.str1.4,"aMS",%progbits,1
 147              		.align	2
 148              	.LC0:
 149 0000 54656D70 		.ascii	"Temp: %f \015\012\000"
 149      3A202566 
 149      200D0A00 
 150              	.LC1:
ARM GAS  C:\Users\Simon\AppData\Local\Temp\cc4n88q8.s 			page 5


 151 000c 62312073 		.ascii	"b1 success\000"
 151      75636365 
 151      737300
 152 0017 00       		.space	1
 153              	.LC2:
 154 0018 62322073 		.ascii	"b2 success\000"
 154      75636365 
 154      737300
 155 0023 00       		.space	1
 156              	.LC3:
 157 0024 4572726F 		.ascii	"Error I2C\000"
 157      72204932 
 157      4300
 158              		.text
 159              	.Letext0:
 160              		.file 2 "c:\\program files (x86)\\cypress\\psoc creator\\4.3\\psoc creator\\import\\gnu\\arm\\5.4.
 161              		.file 3 "c:\\program files (x86)\\cypress\\psoc creator\\4.3\\psoc creator\\import\\gnu\\arm\\5.4.
 162              		.file 4 "Generated_Source\\PSoC5/cytypes.h"
 163              		.file 5 "c:\\program files (x86)\\cypress\\psoc creator\\4.3\\psoc creator\\import\\gnu\\arm\\5.4.
 164              		.file 6 "Generated_Source\\PSoC5/UART_1.h"
 165              		.file 7 "Generated_Source\\PSoC5/I2C_1.h"
 166              		.file 8 "Generated_Source\\PSoC5/core_cm3.h"