ARM GAS  C:\Users\Simon\AppData\Local\Temp\ccWjbEAh.s 			page 1


   1              		.syntax unified
   2              		.cpu cortex-m3
   3              		.fpu softvfp
   4              		.eabi_attribute 20, 1
   5              		.eabi_attribute 21, 1
   6              		.eabi_attribute 23, 3
   7              		.eabi_attribute 24, 1
   8              		.eabi_attribute 25, 1
   9              		.eabi_attribute 26, 1
  10              		.eabi_attribute 30, 1
  11              		.eabi_attribute 34, 1
  12              		.eabi_attribute 18, 4
  13              		.thumb
  14              		.syntax unified
  15              		.file	"main.c"
  16              		.text
  17              	.Ltext0:
  18              		.cfi_sections	.debug_frame
  19              		.section	.text.main,"ax",%progbits
  20              		.align	2
  21              		.global	main
  22              		.thumb
  23              		.thumb_func
  24              		.type	main, %function
  25              	main:
  26              	.LFB63:
  27              		.file 1 "main.c"
   1:main.c        **** /* ========================================
   2:main.c        ****  *
   3:main.c        ****  * Copyright YOUR COMPANY, THE YEAR
   4:main.c        ****  * All Rights Reserved
   5:main.c        ****  * UNPUBLISHED, LICENSED SOFTWARE.
   6:main.c        ****  *
   7:main.c        ****  * CONFIDENTIAL AND PROPRIETARY INFORMATION
   8:main.c        ****  * WHICH IS THE PROPERTY OF your company.
   9:main.c        ****  *
  10:main.c        ****  * ========================================
  11:main.c        **** */
  12:main.c        **** #include "project.h"
  13:main.c        **** 
  14:main.c        **** // Prototyper
  15:main.c        **** CY_ISR_PROTO(ISR_UART_rx_handler);
  16:main.c        **** void handleByteReceived(uint8_t byteReceived);
  17:main.c        **** void decreaseSpeed(void);
  18:main.c        **** void increaseSpeed(void);
  19:main.c        **** void driveForwards(void);
  20:main.c        **** void driveBackwards(void);
  21:main.c        **** void stop(void);
  22:main.c        **** 
  23:main.c        **** uint8_t mode = 0;
  24:main.c        **** uint8 currentSpeed = 0;
  25:main.c        **** uint8 IN1,IN2 = 0;
  26:main.c        **** 
  27:main.c        **** int main(void)
  28:main.c        **** {
  28              		.loc 1 28 0
  29              		.cfi_startproc
ARM GAS  C:\Users\Simon\AppData\Local\Temp\ccWjbEAh.s 			page 2


  30              		@ Volatile: function does not return.
  31              		@ args = 0, pretend = 0, frame = 0
  32              		@ frame_needed = 0, uses_anonymous_args = 0
  33 0000 08B5     		push	{r3, lr}
  34              		.cfi_def_cfa_offset 8
  35              		.cfi_offset 3, -8
  36              		.cfi_offset 14, -4
  29:main.c        ****     CyGlobalIntEnable; /* Enable global interrupts. */
  37              		.loc 1 29 0
  38              		.syntax unified
  39              	@ 29 "main.c" 1
  40 0002 62B6     		CPSIE   i
  41              	@ 0 "" 2
  30:main.c        **** 
  31:main.c        ****     /* Place your initialization/startup code here (e.g. MyInst_Start()) */
  32:main.c        ****     isr_uart_rx_StartEx(ISR_UART_rx_handler);
  42              		.loc 1 32 0
  43              		.thumb
  44              		.syntax unified
  45 0004 2E48     		ldr	r0, .L12
  46 0006 FFF7FEFF 		bl	isr_uart_rx_StartEx
  47              	.LVL0:
  33:main.c        ****     UART_1_Start();
  48              		.loc 1 33 0
  49 000a FFF7FEFF 		bl	UART_1_Start
  50              	.LVL1:
  34:main.c        ****     PWM_1_Start();
  51              		.loc 1 34 0
  52 000e FFF7FEFF 		bl	PWM_1_Start
  53              	.LVL2:
  35:main.c        ****     
  36:main.c        ****     UART_1_PutString("DC-Motor-PWM application started\r\n");
  54              		.loc 1 36 0
  55 0012 2C48     		ldr	r0, .L12+4
  56 0014 FFF7FEFF 		bl	UART_1_PutString
  57              	.LVL3:
  37:main.c        ****     UART_1_PutString("0: Stop\r\n");
  58              		.loc 1 37 0
  59 0018 2B48     		ldr	r0, .L12+8
  60 001a FFF7FEFF 		bl	UART_1_PutString
  61              	.LVL4:
  38:main.c        ****     UART_1_PutString("1: Drive forwards\r\n");
  62              		.loc 1 38 0
  63 001e 2B48     		ldr	r0, .L12+12
  64 0020 FFF7FEFF 		bl	UART_1_PutString
  65              	.LVL5:
  39:main.c        ****     UART_1_PutString("2: Drive backwards\r\n");
  66              		.loc 1 39 0
  67 0024 2A48     		ldr	r0, .L12+16
  68 0026 FFF7FEFF 		bl	UART_1_PutString
  69              	.LVL6:
  40:main.c        ****     UART_1_PutString("q: Decrease speed\r\n");
  70              		.loc 1 40 0
  71 002a 2A48     		ldr	r0, .L12+20
  72 002c FFF7FEFF 		bl	UART_1_PutString
  73              	.LVL7:
  41:main.c        ****     UART_1_PutString("w: Increase speed\r\n");
ARM GAS  C:\Users\Simon\AppData\Local\Temp\ccWjbEAh.s 			page 3


  74              		.loc 1 41 0
  75 0030 2948     		ldr	r0, .L12+24
  76 0032 FFF7FEFF 		bl	UART_1_PutString
  77              	.LVL8:
  78              	.L3:
  42:main.c        **** 
  43:main.c        ****     for(;;)
  44:main.c        ****     {
  45:main.c        ****         /* Place your application code here. */
  46:main.c        ****         switch(mode)
  79              		.loc 1 46 0
  80 0036 294B     		ldr	r3, .L12+28
  81 0038 1B78     		ldrb	r3, [r3]	@ zero_extendqisi2
  82 003a 013B     		subs	r3, r3, #1
  83 003c 042B     		cmp	r3, #4
  84 003e FAD8     		bhi	.L3
  85 0040 DFE803F0 		tbb	[pc, r3]
  86              	.L5:
  87 0044 03       		.byte	(.L4-.L5)/2
  88 0045 10       		.byte	(.L6-.L5)/2
  89 0046 1D       		.byte	(.L7-.L5)/2
  90 0047 2A       		.byte	(.L8-.L5)/2
  91 0048 37       		.byte	(.L9-.L5)/2
  92 0049 00       		.p2align 1
  93              	.L4:
  47:main.c        ****         {
  48:main.c        ****             case 1:
  49:main.c        ****             //decrease speed
  50:main.c        ****             if(currentSpeed != 0 && currentSpeed < 255)
  94              		.loc 1 50 0
  95 004a 244B     		ldr	r3, .L12+28
  96 004c 5A78     		ldrb	r2, [r3, #1]	@ zero_extendqisi2
  97 004e 531E     		subs	r3, r2, #1
  98 0050 DBB2     		uxtb	r3, r3
  99 0052 FD2B     		cmp	r3, #253
 100 0054 EFD8     		bhi	.L3
  51:main.c        ****             {
  52:main.c        ****                 currentSpeed = currentSpeed - 20;
 101              		.loc 1 52 0
 102 0056 143A     		subs	r2, r2, #20
 103 0058 D0B2     		uxtb	r0, r2
 104 005a 204B     		ldr	r3, .L12+28
 105 005c 5870     		strb	r0, [r3, #1]
  53:main.c        ****                 PWM_1_WriteCompare(currentSpeed);
 106              		.loc 1 53 0
 107 005e FFF7FEFF 		bl	PWM_1_WriteCompare
 108              	.LVL9:
 109 0062 E8E7     		b	.L3
 110              	.L6:
  54:main.c        ****             }
  55:main.c        ****             break;
  56:main.c        ****             case 2:
  57:main.c        ****             //Increase speed
  58:main.c        ****             if(currentSpeed != 0 && currentSpeed < 255)
 111              		.loc 1 58 0
 112 0064 1D4B     		ldr	r3, .L12+28
 113 0066 5A78     		ldrb	r2, [r3, #1]	@ zero_extendqisi2
ARM GAS  C:\Users\Simon\AppData\Local\Temp\ccWjbEAh.s 			page 4


 114 0068 531E     		subs	r3, r2, #1
 115 006a DBB2     		uxtb	r3, r3
 116 006c FD2B     		cmp	r3, #253
 117 006e E2D8     		bhi	.L3
  59:main.c        ****             {
  60:main.c        ****                 currentSpeed = currentSpeed + 20;
 118              		.loc 1 60 0
 119 0070 1432     		adds	r2, r2, #20
 120 0072 D0B2     		uxtb	r0, r2
 121 0074 194B     		ldr	r3, .L12+28
 122 0076 5870     		strb	r0, [r3, #1]
  61:main.c        ****                 PWM_1_WriteCompare(currentSpeed);
 123              		.loc 1 61 0
 124 0078 FFF7FEFF 		bl	PWM_1_WriteCompare
 125              	.LVL10:
 126 007c DBE7     		b	.L3
 127              	.L7:
  62:main.c        ****             }
  63:main.c        ****             break;
  64:main.c        ****             case 3:
  65:main.c        ****             //Drive Forwards
  66:main.c        ****             currentSpeed = 200;
 128              		.loc 1 66 0
 129 007e 174C     		ldr	r4, .L12+28
 130 0080 C820     		movs	r0, #200
 131 0082 6070     		strb	r0, [r4, #1]
  67:main.c        ****             PWM_1_WriteCompare(currentSpeed);
 132              		.loc 1 67 0
 133 0084 FFF7FEFF 		bl	PWM_1_WriteCompare
 134              	.LVL11:
  68:main.c        ****             
  69:main.c        ****             //Styrelsen af H-Bro
  70:main.c        ****             Pin_IN1_Write(IN1);
 135              		.loc 1 70 0
 136 0088 154B     		ldr	r3, .L12+32
 137 008a 1878     		ldrb	r0, [r3]	@ zero_extendqisi2
 138 008c FFF7FEFF 		bl	Pin_IN1_Write
 139              	.LVL12:
  71:main.c        ****             Pin_IN2_Write(IN2);
 140              		.loc 1 71 0
 141 0090 A078     		ldrb	r0, [r4, #2]	@ zero_extendqisi2
 142 0092 FFF7FEFF 		bl	Pin_IN2_Write
 143              	.LVL13:
  72:main.c        ****             
  73:main.c        ****             break;
 144              		.loc 1 73 0
 145 0096 CEE7     		b	.L3
 146              	.L8:
  74:main.c        ****             case 4:
  75:main.c        ****             //Drive backwards
  76:main.c        ****             currentSpeed = 200;
 147              		.loc 1 76 0
 148 0098 104C     		ldr	r4, .L12+28
 149 009a C820     		movs	r0, #200
 150 009c 6070     		strb	r0, [r4, #1]
  77:main.c        ****             PWM_1_WriteCompare(currentSpeed);
 151              		.loc 1 77 0
ARM GAS  C:\Users\Simon\AppData\Local\Temp\ccWjbEAh.s 			page 5


 152 009e FFF7FEFF 		bl	PWM_1_WriteCompare
 153              	.LVL14:
  78:main.c        ****             
  79:main.c        ****             //Styrelsen af H-Bro
  80:main.c        ****             Pin_IN1_Write(IN1);
 154              		.loc 1 80 0
 155 00a2 0F4B     		ldr	r3, .L12+32
 156 00a4 1878     		ldrb	r0, [r3]	@ zero_extendqisi2
 157 00a6 FFF7FEFF 		bl	Pin_IN1_Write
 158              	.LVL15:
  81:main.c        ****             Pin_IN2_Write(IN2);
 159              		.loc 1 81 0
 160 00aa A078     		ldrb	r0, [r4, #2]	@ zero_extendqisi2
 161 00ac FFF7FEFF 		bl	Pin_IN2_Write
 162              	.LVL16:
  82:main.c        ****             
  83:main.c        ****             break;
 163              		.loc 1 83 0
 164 00b0 C1E7     		b	.L3
 165              	.L9:
  84:main.c        ****             case 5:
  85:main.c        ****             //Stop
  86:main.c        ****             currentSpeed = 0;   // Stop PWM
 166              		.loc 1 86 0
 167 00b2 0020     		movs	r0, #0
 168 00b4 094B     		ldr	r3, .L12+28
 169 00b6 5870     		strb	r0, [r3, #1]
  87:main.c        ****             PWM_1_WriteCompare(currentSpeed);
 170              		.loc 1 87 0
 171 00b8 FFF7FEFF 		bl	PWM_1_WriteCompare
 172              	.LVL17:
  88:main.c        ****             
  89:main.c        ****             break;
 173              		.loc 1 89 0
 174 00bc BBE7     		b	.L3
 175              	.L13:
 176 00be 00BF     		.align	2
 177              	.L12:
 178 00c0 00000000 		.word	ISR_UART_rx_handler
 179 00c4 00000000 		.word	.LC0
 180 00c8 24000000 		.word	.LC1
 181 00cc 30000000 		.word	.LC2
 182 00d0 44000000 		.word	.LC3
 183 00d4 5C000000 		.word	.LC4
 184 00d8 70000000 		.word	.LC5
 185 00dc 00000000 		.word	.LANCHOR0
 186 00e0 00000000 		.word	IN1
 187              		.cfi_endproc
 188              	.LFE63:
 189              		.size	main, .-main
 190              		.section	.text.decreaseSpeed,"ax",%progbits
 191              		.align	2
 192              		.global	decreaseSpeed
 193              		.thumb
 194              		.thumb_func
 195              		.type	decreaseSpeed, %function
 196              	decreaseSpeed:
ARM GAS  C:\Users\Simon\AppData\Local\Temp\ccWjbEAh.s 			page 6


 197              	.LFB66:
  90:main.c        ****         }
  91:main.c        ****     }
  92:main.c        **** }
  93:main.c        **** 
  94:main.c        **** CY_ISR(ISR_UART_rx_handler)
  95:main.c        **** {
  96:main.c        ****     uint8_t bytesToRead = UART_1_GetRxBufferSize();
  97:main.c        ****     while (bytesToRead > 0)
  98:main.c        ****     {
  99:main.c        ****         uint8_t byteReceived = UART_1_ReadRxData();
 100:main.c        ****         UART_1_WriteTxData(byteReceived); // echo back
 101:main.c        ****         
 102:main.c        ****         handleByteReceived(byteReceived);
 103:main.c        ****         
 104:main.c        ****         bytesToRead--;
 105:main.c        ****     }
 106:main.c        **** }
 107:main.c        **** 
 108:main.c        **** void handleByteReceived(uint8_t byteReceived)
 109:main.c        **** {
 110:main.c        ****     switch(byteReceived)
 111:main.c        ****     {
 112:main.c        ****         case 'q' :
 113:main.c        ****         {
 114:main.c        ****             decreaseSpeed();
 115:main.c        ****         }
 116:main.c        ****         break;
 117:main.c        ****         case 'w' :
 118:main.c        ****         {
 119:main.c        ****             increaseSpeed();
 120:main.c        ****         }
 121:main.c        ****         break;
 122:main.c        ****         case '1' :
 123:main.c        ****         {
 124:main.c        ****             driveForwards();
 125:main.c        ****         }
 126:main.c        ****         break;
 127:main.c        ****         case '2' :
 128:main.c        ****         {
 129:main.c        ****             driveBackwards();
 130:main.c        ****         }
 131:main.c        ****         break;
 132:main.c        ****         case '0' :
 133:main.c        ****         {
 134:main.c        ****             stop();
 135:main.c        ****             
 136:main.c        ****         }
 137:main.c        ****         break;
 138:main.c        ****         default :
 139:main.c        ****         {
 140:main.c        ****             // nothing
 141:main.c        ****         }
 142:main.c        ****         break;
 143:main.c        ****     }
 144:main.c        **** }
 145:main.c        **** 
ARM GAS  C:\Users\Simon\AppData\Local\Temp\ccWjbEAh.s 			page 7


 146:main.c        **** void decreaseSpeed()
 147:main.c        **** {
 198              		.loc 1 147 0
 199              		.cfi_startproc
 200              		@ args = 0, pretend = 0, frame = 0
 201              		@ frame_needed = 0, uses_anonymous_args = 0
 202 0000 08B5     		push	{r3, lr}
 203              		.cfi_def_cfa_offset 8
 204              		.cfi_offset 3, -8
 205              		.cfi_offset 14, -4
 148:main.c        ****     UART_1_PutString("Decreasing speed\r\n");
 206              		.loc 1 148 0
 207 0002 0348     		ldr	r0, .L16
 208 0004 FFF7FEFF 		bl	UART_1_PutString
 209              	.LVL18:
 149:main.c        ****     mode = 1;
 210              		.loc 1 149 0
 211 0008 0122     		movs	r2, #1
 212 000a 024B     		ldr	r3, .L16+4
 213 000c 1A70     		strb	r2, [r3]
 214 000e 08BD     		pop	{r3, pc}
 215              	.L17:
 216              		.align	2
 217              	.L16:
 218 0010 84000000 		.word	.LC6
 219 0014 00000000 		.word	.LANCHOR0
 220              		.cfi_endproc
 221              	.LFE66:
 222              		.size	decreaseSpeed, .-decreaseSpeed
 223              		.section	.text.increaseSpeed,"ax",%progbits
 224              		.align	2
 225              		.global	increaseSpeed
 226              		.thumb
 227              		.thumb_func
 228              		.type	increaseSpeed, %function
 229              	increaseSpeed:
 230              	.LFB67:
 150:main.c        **** }
 151:main.c        **** 
 152:main.c        **** void increaseSpeed()
 153:main.c        **** {
 231              		.loc 1 153 0
 232              		.cfi_startproc
 233              		@ args = 0, pretend = 0, frame = 0
 234              		@ frame_needed = 0, uses_anonymous_args = 0
 235 0000 08B5     		push	{r3, lr}
 236              		.cfi_def_cfa_offset 8
 237              		.cfi_offset 3, -8
 238              		.cfi_offset 14, -4
 154:main.c        ****     UART_1_PutString("Increasing speed\r\n");
 239              		.loc 1 154 0
 240 0002 0348     		ldr	r0, .L20
 241 0004 FFF7FEFF 		bl	UART_1_PutString
 242              	.LVL19:
 155:main.c        ****     mode = 2;
 243              		.loc 1 155 0
 244 0008 0222     		movs	r2, #2
ARM GAS  C:\Users\Simon\AppData\Local\Temp\ccWjbEAh.s 			page 8


 245 000a 024B     		ldr	r3, .L20+4
 246 000c 1A70     		strb	r2, [r3]
 247 000e 08BD     		pop	{r3, pc}
 248              	.L21:
 249              		.align	2
 250              	.L20:
 251 0010 98000000 		.word	.LC7
 252 0014 00000000 		.word	.LANCHOR0
 253              		.cfi_endproc
 254              	.LFE67:
 255              		.size	increaseSpeed, .-increaseSpeed
 256              		.section	.text.driveForwards,"ax",%progbits
 257              		.align	2
 258              		.global	driveForwards
 259              		.thumb
 260              		.thumb_func
 261              		.type	driveForwards, %function
 262              	driveForwards:
 263              	.LFB68:
 156:main.c        **** }
 157:main.c        **** 
 158:main.c        **** void driveForwards()
 159:main.c        **** {
 264              		.loc 1 159 0
 265              		.cfi_startproc
 266              		@ args = 0, pretend = 0, frame = 0
 267              		@ frame_needed = 0, uses_anonymous_args = 0
 268 0000 08B5     		push	{r3, lr}
 269              		.cfi_def_cfa_offset 8
 270              		.cfi_offset 3, -8
 271              		.cfi_offset 14, -4
 160:main.c        ****     UART_1_PutString("Set direction: forwards\r\n");
 272              		.loc 1 160 0
 273 0002 0648     		ldr	r0, .L24
 274 0004 FFF7FEFF 		bl	UART_1_PutString
 275              	.LVL20:
 161:main.c        ****     mode = 3;
 276              		.loc 1 161 0
 277 0008 054B     		ldr	r3, .L24+4
 278 000a 0322     		movs	r2, #3
 279 000c 1A70     		strb	r2, [r3]
 162:main.c        ****     IN1 = 1;
 280              		.loc 1 162 0
 281 000e 0121     		movs	r1, #1
 282 0010 044A     		ldr	r2, .L24+8
 283 0012 1170     		strb	r1, [r2]
 163:main.c        ****     IN2 = 0;
 284              		.loc 1 163 0
 285 0014 0022     		movs	r2, #0
 286 0016 9A70     		strb	r2, [r3, #2]
 287 0018 08BD     		pop	{r3, pc}
 288              	.L25:
 289 001a 00BF     		.align	2
 290              	.L24:
 291 001c AC000000 		.word	.LC8
 292 0020 00000000 		.word	.LANCHOR0
 293 0024 00000000 		.word	IN1
ARM GAS  C:\Users\Simon\AppData\Local\Temp\ccWjbEAh.s 			page 9


 294              		.cfi_endproc
 295              	.LFE68:
 296              		.size	driveForwards, .-driveForwards
 297              		.section	.text.driveBackwards,"ax",%progbits
 298              		.align	2
 299              		.global	driveBackwards
 300              		.thumb
 301              		.thumb_func
 302              		.type	driveBackwards, %function
 303              	driveBackwards:
 304              	.LFB69:
 164:main.c        **** }
 165:main.c        **** 
 166:main.c        **** void driveBackwards()
 167:main.c        **** {
 305              		.loc 1 167 0
 306              		.cfi_startproc
 307              		@ args = 0, pretend = 0, frame = 0
 308              		@ frame_needed = 0, uses_anonymous_args = 0
 309 0000 08B5     		push	{r3, lr}
 310              		.cfi_def_cfa_offset 8
 311              		.cfi_offset 3, -8
 312              		.cfi_offset 14, -4
 168:main.c        ****     UART_1_PutString("Set direction: backwards\r\n");
 313              		.loc 1 168 0
 314 0002 0648     		ldr	r0, .L28
 315 0004 FFF7FEFF 		bl	UART_1_PutString
 316              	.LVL21:
 169:main.c        ****     mode = 4;
 317              		.loc 1 169 0
 318 0008 054B     		ldr	r3, .L28+4
 319 000a 0422     		movs	r2, #4
 320 000c 1A70     		strb	r2, [r3]
 170:main.c        ****     IN2 = 1;
 321              		.loc 1 170 0
 322 000e 0122     		movs	r2, #1
 323 0010 9A70     		strb	r2, [r3, #2]
 171:main.c        ****     IN1 = 0;
 324              		.loc 1 171 0
 325 0012 0022     		movs	r2, #0
 326 0014 034B     		ldr	r3, .L28+8
 327 0016 1A70     		strb	r2, [r3]
 328 0018 08BD     		pop	{r3, pc}
 329              	.L29:
 330 001a 00BF     		.align	2
 331              	.L28:
 332 001c C8000000 		.word	.LC9
 333 0020 00000000 		.word	.LANCHOR0
 334 0024 00000000 		.word	IN1
 335              		.cfi_endproc
 336              	.LFE69:
 337              		.size	driveBackwards, .-driveBackwards
 338              		.section	.text.stop,"ax",%progbits
 339              		.align	2
 340              		.global	stop
 341              		.thumb
 342              		.thumb_func
ARM GAS  C:\Users\Simon\AppData\Local\Temp\ccWjbEAh.s 			page 10


 343              		.type	stop, %function
 344              	stop:
 345              	.LFB70:
 172:main.c        **** }
 173:main.c        **** 
 174:main.c        **** void stop()
 175:main.c        **** {
 346              		.loc 1 175 0
 347              		.cfi_startproc
 348              		@ args = 0, pretend = 0, frame = 0
 349              		@ frame_needed = 0, uses_anonymous_args = 0
 350 0000 08B5     		push	{r3, lr}
 351              		.cfi_def_cfa_offset 8
 352              		.cfi_offset 3, -8
 353              		.cfi_offset 14, -4
 176:main.c        ****     UART_1_PutString("Stop\r\n");
 354              		.loc 1 176 0
 355 0002 0348     		ldr	r0, .L32
 356 0004 FFF7FEFF 		bl	UART_1_PutString
 357              	.LVL22:
 177:main.c        ****     mode = 5;
 358              		.loc 1 177 0
 359 0008 0522     		movs	r2, #5
 360 000a 024B     		ldr	r3, .L32+4
 361 000c 1A70     		strb	r2, [r3]
 362 000e 08BD     		pop	{r3, pc}
 363              	.L33:
 364              		.align	2
 365              	.L32:
 366 0010 E4000000 		.word	.LC10
 367 0014 00000000 		.word	.LANCHOR0
 368              		.cfi_endproc
 369              	.LFE70:
 370              		.size	stop, .-stop
 371              		.section	.text.handleByteReceived,"ax",%progbits
 372              		.align	2
 373              		.global	handleByteReceived
 374              		.thumb
 375              		.thumb_func
 376              		.type	handleByteReceived, %function
 377              	handleByteReceived:
 378              	.LFB65:
 109:main.c        ****     switch(byteReceived)
 379              		.loc 1 109 0
 380              		.cfi_startproc
 381              		@ args = 0, pretend = 0, frame = 0
 382              		@ frame_needed = 0, uses_anonymous_args = 0
 383              	.LVL23:
 384 0000 08B5     		push	{r3, lr}
 385              		.cfi_def_cfa_offset 8
 386              		.cfi_offset 3, -8
 387              		.cfi_offset 14, -4
 110:main.c        ****     {
 388              		.loc 1 110 0
 389 0002 3228     		cmp	r0, #50
 390 0004 13D0     		beq	.L36
 391 0006 04D8     		bhi	.L37
ARM GAS  C:\Users\Simon\AppData\Local\Temp\ccWjbEAh.s 			page 11


 392 0008 3028     		cmp	r0, #48
 393 000a 13D0     		beq	.L38
 394 000c 3128     		cmp	r0, #49
 395 000e 0BD0     		beq	.L39
 396 0010 08BD     		pop	{r3, pc}
 397              	.L37:
 398 0012 7128     		cmp	r0, #113
 399 0014 02D0     		beq	.L40
 400 0016 7728     		cmp	r0, #119
 401 0018 03D0     		beq	.L41
 402 001a 08BD     		pop	{r3, pc}
 403              	.L40:
 114:main.c        ****         }
 404              		.loc 1 114 0
 405 001c FFF7FEFF 		bl	decreaseSpeed
 406              	.LVL24:
 116:main.c        ****         case 'w' :
 407              		.loc 1 116 0
 408 0020 08BD     		pop	{r3, pc}
 409              	.LVL25:
 410              	.L41:
 119:main.c        ****         }
 411              		.loc 1 119 0
 412 0022 FFF7FEFF 		bl	increaseSpeed
 413              	.LVL26:
 121:main.c        ****         case '1' :
 414              		.loc 1 121 0
 415 0026 08BD     		pop	{r3, pc}
 416              	.LVL27:
 417              	.L39:
 124:main.c        ****         }
 418              		.loc 1 124 0
 419 0028 FFF7FEFF 		bl	driveForwards
 420              	.LVL28:
 126:main.c        ****         case '2' :
 421              		.loc 1 126 0
 422 002c 08BD     		pop	{r3, pc}
 423              	.LVL29:
 424              	.L36:
 129:main.c        ****         }
 425              		.loc 1 129 0
 426 002e FFF7FEFF 		bl	driveBackwards
 427              	.LVL30:
 131:main.c        ****         case '0' :
 428              		.loc 1 131 0
 429 0032 08BD     		pop	{r3, pc}
 430              	.LVL31:
 431              	.L38:
 134:main.c        ****             
 432              		.loc 1 134 0
 433 0034 FFF7FEFF 		bl	stop
 434              	.LVL32:
 435 0038 08BD     		pop	{r3, pc}
 436              		.cfi_endproc
 437              	.LFE65:
 438              		.size	handleByteReceived, .-handleByteReceived
 439 003a 00BF     		.section	.text.ISR_UART_rx_handler,"ax",%progbits
ARM GAS  C:\Users\Simon\AppData\Local\Temp\ccWjbEAh.s 			page 12


 440              		.align	2
 441              		.global	ISR_UART_rx_handler
 442              		.thumb
 443              		.thumb_func
 444              		.type	ISR_UART_rx_handler, %function
 445              	ISR_UART_rx_handler:
 446              	.LFB64:
  95:main.c        ****     uint8_t bytesToRead = UART_1_GetRxBufferSize();
 447              		.loc 1 95 0
 448              		.cfi_startproc
 449              		@ args = 0, pretend = 0, frame = 0
 450              		@ frame_needed = 0, uses_anonymous_args = 0
 451 0000 38B5     		push	{r3, r4, r5, lr}
 452              		.cfi_def_cfa_offset 16
 453              		.cfi_offset 3, -16
 454              		.cfi_offset 4, -12
 455              		.cfi_offset 5, -8
 456              		.cfi_offset 14, -4
  96:main.c        ****     while (bytesToRead > 0)
 457              		.loc 1 96 0
 458 0002 FFF7FEFF 		bl	UART_1_GetRxBufferSize
 459              	.LVL33:
 460 0006 0446     		mov	r4, r0
 461              	.LVL34:
  97:main.c        ****     {
 462              		.loc 1 97 0
 463 0008 09E0     		b	.L44
 464              	.L45:
 465              	.LBB2:
  99:main.c        ****         UART_1_WriteTxData(byteReceived); // echo back
 466              		.loc 1 99 0
 467 000a FFF7FEFF 		bl	UART_1_ReadRxData
 468              	.LVL35:
 469 000e 0546     		mov	r5, r0
 470              	.LVL36:
 100:main.c        ****         
 471              		.loc 1 100 0
 472 0010 FFF7FEFF 		bl	UART_1_WriteTxData
 473              	.LVL37:
 102:main.c        ****         
 474              		.loc 1 102 0
 475 0014 2846     		mov	r0, r5
 476 0016 FFF7FEFF 		bl	handleByteReceived
 477              	.LVL38:
 104:main.c        ****     }
 478              		.loc 1 104 0
 479 001a 013C     		subs	r4, r4, #1
 480              	.LVL39:
 481 001c E4B2     		uxtb	r4, r4
 482              	.LVL40:
 483              	.L44:
 484              	.LBE2:
  97:main.c        ****     {
 485              		.loc 1 97 0
 486 001e 002C     		cmp	r4, #0
 487 0020 F3D1     		bne	.L45
 106:main.c        **** 
ARM GAS  C:\Users\Simon\AppData\Local\Temp\ccWjbEAh.s 			page 13


 488              		.loc 1 106 0
 489 0022 38BD     		pop	{r3, r4, r5, pc}
 490              		.cfi_endproc
 491              	.LFE64:
 492              		.size	ISR_UART_rx_handler, .-ISR_UART_rx_handler
 493              		.global	IN2
 494              		.comm	IN1,1,1
 495              		.global	currentSpeed
 496              		.global	mode
 497              		.section	.rodata.str1.4,"aMS",%progbits,1
 498              		.align	2
 499              	.LC0:
 500 0000 44432D4D 		.ascii	"DC-Motor-PWM application started\015\012\000"
 500      6F746F72 
 500      2D50574D 
 500      20617070 
 500      6C696361 
 501 0023 00       		.space	1
 502              	.LC1:
 503 0024 303A2053 		.ascii	"0: Stop\015\012\000"
 503      746F700D 
 503      0A00
 504 002e 0000     		.space	2
 505              	.LC2:
 506 0030 313A2044 		.ascii	"1: Drive forwards\015\012\000"
 506      72697665 
 506      20666F72 
 506      77617264 
 506      730D0A00 
 507              	.LC3:
 508 0044 323A2044 		.ascii	"2: Drive backwards\015\012\000"
 508      72697665 
 508      20626163 
 508      6B776172 
 508      64730D0A 
 509 0059 000000   		.space	3
 510              	.LC4:
 511 005c 713A2044 		.ascii	"q: Decrease speed\015\012\000"
 511      65637265 
 511      61736520 
 511      73706565 
 511      640D0A00 
 512              	.LC5:
 513 0070 773A2049 		.ascii	"w: Increase speed\015\012\000"
 513      6E637265 
 513      61736520 
 513      73706565 
 513      640D0A00 
 514              	.LC6:
 515 0084 44656372 		.ascii	"Decreasing speed\015\012\000"
 515      65617369 
 515      6E672073 
 515      70656564 
 515      0D0A00
 516 0097 00       		.space	1
 517              	.LC7:
 518 0098 496E6372 		.ascii	"Increasing speed\015\012\000"
ARM GAS  C:\Users\Simon\AppData\Local\Temp\ccWjbEAh.s 			page 14


 518      65617369 
 518      6E672073 
 518      70656564 
 518      0D0A00
 519 00ab 00       		.space	1
 520              	.LC8:
 521 00ac 53657420 		.ascii	"Set direction: forwards\015\012\000"
 521      64697265 
 521      6374696F 
 521      6E3A2066 
 521      6F727761 
 522 00c6 0000     		.space	2
 523              	.LC9:
 524 00c8 53657420 		.ascii	"Set direction: backwards\015\012\000"
 524      64697265 
 524      6374696F 
 524      6E3A2062 
 524      61636B77 
 525 00e3 00       		.space	1
 526              	.LC10:
 527 00e4 53746F70 		.ascii	"Stop\015\012\000"
 527      0D0A00
 528              		.bss
 529              		.set	.LANCHOR0,. + 0
 530              		.type	mode, %object
 531              		.size	mode, 1
 532              	mode:
 533 0000 00       		.space	1
 534              		.type	currentSpeed, %object
 535              		.size	currentSpeed, 1
 536              	currentSpeed:
 537 0001 00       		.space	1
 538              		.type	IN2, %object
 539              		.size	IN2, 1
 540              	IN2:
 541 0002 00       		.space	1
 542              		.text
 543              	.Letext0:
 544              		.file 2 "c:\\program files (x86)\\cypress\\psoc creator\\4.3\\psoc creator\\import\\gnu\\arm\\5.4.
 545              		.file 3 "c:\\program files (x86)\\cypress\\psoc creator\\4.3\\psoc creator\\import\\gnu\\arm\\5.4.
 546              		.file 4 "Generated_Source\\PSoC5/cytypes.h"
 547              		.file 5 "Generated_Source\\PSoC5/core_cm3.h"
 548              		.file 6 "Generated_Source\\PSoC5/isr_uart_rx.h"
 549              		.file 7 "Generated_Source\\PSoC5/UART_1.h"
 550              		.file 8 "Generated_Source\\PSoC5/PWM_1.h"
 551              		.file 9 "Generated_Source\\PSoC5/Pin_IN1.h"
 552              		.file 10 "Generated_Source\\PSoC5/Pin_IN2.h"