ARM GAS  C:\Users\Simon\AppData\Local\Temp\ccADjWCj.s 			page 1


   1              		.syntax unified
   2              		.cpu cortex-m3
   3              		.fpu softvfp
   4              		.eabi_attribute 20, 1
   5              		.eabi_attribute 21, 1
   6              		.eabi_attribute 23, 3
   7              		.eabi_attribute 24, 1
   8              		.eabi_attribute 25, 1
   9              		.eabi_attribute 26, 1
  10              		.eabi_attribute 30, 1
  11              		.eabi_attribute 34, 1
  12              		.eabi_attribute 18, 4
  13              		.thumb
  14              		.syntax unified
  15              		.file	"I2C_handler.c"
  16              		.text
  17              	.Ltext0:
  18              		.cfi_sections	.debug_frame
  19              		.global	__aeabi_f2d
  20              		.section	.text.writeTempToUART,"ax",%progbits
  21              		.align	2
  22              		.global	writeTempToUART
  23              		.thumb
  24              		.thumb_func
  25              		.type	writeTempToUART, %function
  26              	writeTempToUART:
  27              	.LFB65:
  28              		.file 1 "..\\..\\Labexercise2_Communicationbuses\\Lab_I2C\\Communicationbuses.cydsn\\I2C_handler.c
   1:..\..\Labexercise2_Communicationbuses\Lab_I2C\Communicationbuses.cydsn/I2C_handler.c **** /* ========================================
   2:..\..\Labexercise2_Communicationbuses\Lab_I2C\Communicationbuses.cydsn/I2C_handler.c ****  *
   3:..\..\Labexercise2_Communicationbuses\Lab_I2C\Communicationbuses.cydsn/I2C_handler.c ****  * Copyright YOUR COMPANY, THE YEAR
   4:..\..\Labexercise2_Communicationbuses\Lab_I2C\Communicationbuses.cydsn/I2C_handler.c ****  * All Rights Reserved
   5:..\..\Labexercise2_Communicationbuses\Lab_I2C\Communicationbuses.cydsn/I2C_handler.c ****  * UNPUBLISHED, LICENSED SOFTWARE.
   6:..\..\Labexercise2_Communicationbuses\Lab_I2C\Communicationbuses.cydsn/I2C_handler.c ****  *
   7:..\..\Labexercise2_Communicationbuses\Lab_I2C\Communicationbuses.cydsn/I2C_handler.c ****  * CONFIDENTIAL AND PROPRIETARY INFORMATION
   8:..\..\Labexercise2_Communicationbuses\Lab_I2C\Communicationbuses.cydsn/I2C_handler.c ****  * WHICH IS THE PROPERTY OF your company.
   9:..\..\Labexercise2_Communicationbuses\Lab_I2C\Communicationbuses.cydsn/I2C_handler.c ****  *
  10:..\..\Labexercise2_Communicationbuses\Lab_I2C\Communicationbuses.cydsn/I2C_handler.c ****  * ========================================
  11:..\..\Labexercise2_Communicationbuses\Lab_I2C\Communicationbuses.cydsn/I2C_handler.c **** */
  12:..\..\Labexercise2_Communicationbuses\Lab_I2C\Communicationbuses.cydsn/I2C_handler.c **** #include <I2C_handler.h>
  13:..\..\Labexercise2_Communicationbuses\Lab_I2C\Communicationbuses.cydsn/I2C_handler.c **** #include <project.h>
  14:..\..\Labexercise2_Communicationbuses\Lab_I2C\Communicationbuses.cydsn/I2C_handler.c **** #include <stdio.h>
  15:..\..\Labexercise2_Communicationbuses\Lab_I2C\Communicationbuses.cydsn/I2C_handler.c **** #include <stdlib.h>
  16:..\..\Labexercise2_Communicationbuses\Lab_I2C\Communicationbuses.cydsn/I2C_handler.c **** #include <stdint.h>
  17:..\..\Labexercise2_Communicationbuses\Lab_I2C\Communicationbuses.cydsn/I2C_handler.c **** 
  18:..\..\Labexercise2_Communicationbuses\Lab_I2C\Communicationbuses.cydsn/I2C_handler.c **** #define LM75address 0x48  // 1001 +  A0: 0 , A1: 0 A2: 0 = 1001000
  19:..\..\Labexercise2_Communicationbuses\Lab_I2C\Communicationbuses.cydsn/I2C_handler.c **** #define LM75address2 0x49 // 1001 +  A0: 1 , A1: 0 , A2: 0 = 1001001
  20:..\..\Labexercise2_Communicationbuses\Lab_I2C\Communicationbuses.cydsn/I2C_handler.c **** 
  21:..\..\Labexercise2_Communicationbuses\Lab_I2C\Communicationbuses.cydsn/I2C_handler.c **** #define CHECK_BIT(var,pos) (((var)>>(pos)) & 1) // Bit manipulation
  22:..\..\Labexercise2_Communicationbuses\Lab_I2C\Communicationbuses.cydsn/I2C_handler.c **** 
  23:..\..\Labexercise2_Communicationbuses\Lab_I2C\Communicationbuses.cydsn/I2C_handler.c **** int8 readTemp()
  24:..\..\Labexercise2_Communicationbuses\Lab_I2C\Communicationbuses.cydsn/I2C_handler.c **** {
  25:..\..\Labexercise2_Communicationbuses\Lab_I2C\Communicationbuses.cydsn/I2C_handler.c ****     //Variabler 
  26:..\..\Labexercise2_Communicationbuses\Lab_I2C\Communicationbuses.cydsn/I2C_handler.c ****     uint8 dataRecv[2] = {0,0};
  27:..\..\Labexercise2_Communicationbuses\Lab_I2C\Communicationbuses.cydsn/I2C_handler.c ****     uint8 errorStatus[2] = {0,0};
  28:..\..\Labexercise2_Communicationbuses\Lab_I2C\Communicationbuses.cydsn/I2C_handler.c ****     float temp;
  29:..\..\Labexercise2_Communicationbuses\Lab_I2C\Communicationbuses.cydsn/I2C_handler.c ****     
ARM GAS  C:\Users\Simon\AppData\Local\Temp\ccADjWCj.s 			page 2


  30:..\..\Labexercise2_Communicationbuses\Lab_I2C\Communicationbuses.cydsn/I2C_handler.c ****     while(1)  // Uendelig loop til måling af temp
  31:..\..\Labexercise2_Communicationbuses\Lab_I2C\Communicationbuses.cydsn/I2C_handler.c ****     {
  32:..\..\Labexercise2_Communicationbuses\Lab_I2C\Communicationbuses.cydsn/I2C_handler.c ****     errorStatus[0] = I2C_1_MasterSendStart(LM75address,I2C_1_READ_XFER_MODE); // Start den første 
  33:..\..\Labexercise2_Communicationbuses\Lab_I2C\Communicationbuses.cydsn/I2C_handler.c ****     if (errorStatus[0] == I2C_1_MSTR_NO_ERROR)  // Tjekker for fejl
  34:..\..\Labexercise2_Communicationbuses\Lab_I2C\Communicationbuses.cydsn/I2C_handler.c ****         {
  35:..\..\Labexercise2_Communicationbuses\Lab_I2C\Communicationbuses.cydsn/I2C_handler.c ****             dataRecv[0] = I2C_1_MasterReadByte(I2C_1_ACK_DATA);  // Læser MSB 8 bit som er tempera
  36:..\..\Labexercise2_Communicationbuses\Lab_I2C\Communicationbuses.cydsn/I2C_handler.c ****             dataRecv[1] = I2C_1_MasterReadByte(I2C_1_NAK_DATA);  // Læser LSB 8 bit hvor 0.5 finde
  37:..\..\Labexercise2_Communicationbuses\Lab_I2C\Communicationbuses.cydsn/I2C_handler.c ****             I2C_1_MasterSendStop();    //  Data er opsamlet så der sendes stop til I2C master  
  38:..\..\Labexercise2_Communicationbuses\Lab_I2C\Communicationbuses.cydsn/I2C_handler.c **** 
  39:..\..\Labexercise2_Communicationbuses\Lab_I2C\Communicationbuses.cydsn/I2C_handler.c ****             temp = dataRecv[0]; // uint8 temperaturen sættes i float
  40:..\..\Labexercise2_Communicationbuses\Lab_I2C\Communicationbuses.cydsn/I2C_handler.c ****             if(CHECK_BIT(dataRecv[1],7) == 1)  // Tjekker om det specifikke bit er 1, dvs at man ha
  41:..\..\Labexercise2_Communicationbuses\Lab_I2C\Communicationbuses.cydsn/I2C_handler.c ****             {
  42:..\..\Labexercise2_Communicationbuses\Lab_I2C\Communicationbuses.cydsn/I2C_handler.c ****                 temp += 0.5;
  43:..\..\Labexercise2_Communicationbuses\Lab_I2C\Communicationbuses.cydsn/I2C_handler.c ****             }
  44:..\..\Labexercise2_Communicationbuses\Lab_I2C\Communicationbuses.cydsn/I2C_handler.c ****             if(CHECK_BIT(dataRecv[0],7) == 1) // Tjekker fortegn om det + eller - temperatur
  45:..\..\Labexercise2_Communicationbuses\Lab_I2C\Communicationbuses.cydsn/I2C_handler.c ****             {
  46:..\..\Labexercise2_Communicationbuses\Lab_I2C\Communicationbuses.cydsn/I2C_handler.c ****                 temp -=128;
  47:..\..\Labexercise2_Communicationbuses\Lab_I2C\Communicationbuses.cydsn/I2C_handler.c ****             }
  48:..\..\Labexercise2_Communicationbuses\Lab_I2C\Communicationbuses.cydsn/I2C_handler.c **** 
  49:..\..\Labexercise2_Communicationbuses\Lab_I2C\Communicationbuses.cydsn/I2C_handler.c ****             writeTempToUART(temp);  // Send temperature to UART
  50:..\..\Labexercise2_Communicationbuses\Lab_I2C\Communicationbuses.cydsn/I2C_handler.c ****             CyDelay(1000);  // Delay med at få ny temperatur måling
  51:..\..\Labexercise2_Communicationbuses\Lab_I2C\Communicationbuses.cydsn/I2C_handler.c ****         }
  52:..\..\Labexercise2_Communicationbuses\Lab_I2C\Communicationbuses.cydsn/I2C_handler.c ****     else if(errorStatus[0] == I2C_1_MSTR_BUS_BUSY)
  53:..\..\Labexercise2_Communicationbuses\Lab_I2C\Communicationbuses.cydsn/I2C_handler.c ****         {
  54:..\..\Labexercise2_Communicationbuses\Lab_I2C\Communicationbuses.cydsn/I2C_handler.c ****           UART_1_PutString("Error I2C_1_MSTR_BUS_BUSY\n");  // Report specifik error på UART
  55:..\..\Labexercise2_Communicationbuses\Lab_I2C\Communicationbuses.cydsn/I2C_handler.c ****           I2C_1_MasterSendStop();    //  Fejl så I2C master skal sende stop
  56:..\..\Labexercise2_Communicationbuses\Lab_I2C\Communicationbuses.cydsn/I2C_handler.c ****           CyDelay(1000);  // Delay med næste temperatur måling
  57:..\..\Labexercise2_Communicationbuses\Lab_I2C\Communicationbuses.cydsn/I2C_handler.c ****         }
  58:..\..\Labexercise2_Communicationbuses\Lab_I2C\Communicationbuses.cydsn/I2C_handler.c ****     else if(errorStatus[0] == I2C_1_MSTR_NOT_READY)
  59:..\..\Labexercise2_Communicationbuses\Lab_I2C\Communicationbuses.cydsn/I2C_handler.c ****         {
  60:..\..\Labexercise2_Communicationbuses\Lab_I2C\Communicationbuses.cydsn/I2C_handler.c ****           UART_1_PutString("Error I2C_1_MSTR_NOT_READY\n"); // Report specifik error på UART
  61:..\..\Labexercise2_Communicationbuses\Lab_I2C\Communicationbuses.cydsn/I2C_handler.c ****           I2C_1_MasterSendStop();    //  Fejl så I2C master skal sende stop
  62:..\..\Labexercise2_Communicationbuses\Lab_I2C\Communicationbuses.cydsn/I2C_handler.c ****           CyDelay(1000);  // Delay med næste temperatur måling
  63:..\..\Labexercise2_Communicationbuses\Lab_I2C\Communicationbuses.cydsn/I2C_handler.c ****         }
  64:..\..\Labexercise2_Communicationbuses\Lab_I2C\Communicationbuses.cydsn/I2C_handler.c ****     else if(errorStatus[0] == I2C_1_MSTR_ERR_LB_NAK)
  65:..\..\Labexercise2_Communicationbuses\Lab_I2C\Communicationbuses.cydsn/I2C_handler.c ****         {
  66:..\..\Labexercise2_Communicationbuses\Lab_I2C\Communicationbuses.cydsn/I2C_handler.c ****           UART_1_PutString("Error I2C_1_MSTR_ERR_LB_NAK\n"); // Report specifik error på UART
  67:..\..\Labexercise2_Communicationbuses\Lab_I2C\Communicationbuses.cydsn/I2C_handler.c ****           I2C_1_MasterSendStop();    //  Fejl så I2C master skal sende stop
  68:..\..\Labexercise2_Communicationbuses\Lab_I2C\Communicationbuses.cydsn/I2C_handler.c ****           CyDelay(1000);  // Delay med næste temperatur måling
  69:..\..\Labexercise2_Communicationbuses\Lab_I2C\Communicationbuses.cydsn/I2C_handler.c ****         }
  70:..\..\Labexercise2_Communicationbuses\Lab_I2C\Communicationbuses.cydsn/I2C_handler.c ****     else if(errorStatus[0] == I2C_1_MSTR_ERR_ARB_LOST)
  71:..\..\Labexercise2_Communicationbuses\Lab_I2C\Communicationbuses.cydsn/I2C_handler.c ****         {
  72:..\..\Labexercise2_Communicationbuses\Lab_I2C\Communicationbuses.cydsn/I2C_handler.c ****           UART_1_PutString("Error I2C_1_MSTR_ERR_ARB_LOST\n"); // Report specifik error på UART
  73:..\..\Labexercise2_Communicationbuses\Lab_I2C\Communicationbuses.cydsn/I2C_handler.c ****           I2C_1_MasterSendStop();    //  Fejl så I2C master skal sende stop
  74:..\..\Labexercise2_Communicationbuses\Lab_I2C\Communicationbuses.cydsn/I2C_handler.c ****           CyDelay(1000);  // Delay med næste temperatur måling
  75:..\..\Labexercise2_Communicationbuses\Lab_I2C\Communicationbuses.cydsn/I2C_handler.c ****         }
  76:..\..\Labexercise2_Communicationbuses\Lab_I2C\Communicationbuses.cydsn/I2C_handler.c ****     else if (errorStatus[0] == I2C_1_MSTR_ERR_ABORT_START_GEN)
  77:..\..\Labexercise2_Communicationbuses\Lab_I2C\Communicationbuses.cydsn/I2C_handler.c ****         {
  78:..\..\Labexercise2_Communicationbuses\Lab_I2C\Communicationbuses.cydsn/I2C_handler.c ****           UART_1_PutString("Error I2C_1_MSTR_ERR_ABORT_START_GE\n"); // Report specifik error på U
  79:..\..\Labexercise2_Communicationbuses\Lab_I2C\Communicationbuses.cydsn/I2C_handler.c ****           I2C_1_MasterSendStop();    //  Fejl så I2C master skal sende stop
  80:..\..\Labexercise2_Communicationbuses\Lab_I2C\Communicationbuses.cydsn/I2C_handler.c ****           CyDelay(1000);  // Delay med næste temperatur måling
  81:..\..\Labexercise2_Communicationbuses\Lab_I2C\Communicationbuses.cydsn/I2C_handler.c ****         }
  82:..\..\Labexercise2_Communicationbuses\Lab_I2C\Communicationbuses.cydsn/I2C_handler.c ****     
  83:..\..\Labexercise2_Communicationbuses\Lab_I2C\Communicationbuses.cydsn/I2C_handler.c ****     }  //While(1) 
  84:..\..\Labexercise2_Communicationbuses\Lab_I2C\Communicationbuses.cydsn/I2C_handler.c ****     return 0;
  85:..\..\Labexercise2_Communicationbuses\Lab_I2C\Communicationbuses.cydsn/I2C_handler.c **** }
  86:..\..\Labexercise2_Communicationbuses\Lab_I2C\Communicationbuses.cydsn/I2C_handler.c **** 
ARM GAS  C:\Users\Simon\AppData\Local\Temp\ccADjWCj.s 			page 3


  87:..\..\Labexercise2_Communicationbuses\Lab_I2C\Communicationbuses.cydsn/I2C_handler.c **** void writeTempToUART(float temp) // Udprintning til UART temperaturen af første LM75
  88:..\..\Labexercise2_Communicationbuses\Lab_I2C\Communicationbuses.cydsn/I2C_handler.c **** {
  29              		.loc 1 88 0
  30              		.cfi_startproc
  31              		@ args = 0, pretend = 0, frame = 256
  32              		@ frame_needed = 0, uses_anonymous_args = 0
  33              	.LVL0:
  34 0000 00B5     		push	{lr}
  35              		.cfi_def_cfa_offset 4
  36              		.cfi_offset 14, -4
  37 0002 C3B0     		sub	sp, sp, #268
  38              		.cfi_def_cfa_offset 272
  89:..\..\Labexercise2_Communicationbuses\Lab_I2C\Communicationbuses.cydsn/I2C_handler.c ****     char outputBuffer[256];
  90:..\..\Labexercise2_Communicationbuses\Lab_I2C\Communicationbuses.cydsn/I2C_handler.c ****     snprintf(outputBuffer, sizeof(outputBuffer), "Temp 1: %.2f \r\n", temp);
  39              		.loc 1 90 0
  40 0004 FFF7FEFF 		bl	__aeabi_f2d
  41              	.LVL1:
  42 0008 CDE90001 		strd	r0, [sp]
  43 000c 054A     		ldr	r2, .L3
  44 000e 4FF48071 		mov	r1, #256
  45 0012 02A8     		add	r0, sp, #8
  46 0014 FFF7FEFF 		bl	snprintf
  47              	.LVL2:
  91:..\..\Labexercise2_Communicationbuses\Lab_I2C\Communicationbuses.cydsn/I2C_handler.c ****     UART_1_PutString(outputBuffer);
  48              		.loc 1 91 0
  49 0018 02A8     		add	r0, sp, #8
  50 001a FFF7FEFF 		bl	UART_1_PutString
  51              	.LVL3:
  92:..\..\Labexercise2_Communicationbuses\Lab_I2C\Communicationbuses.cydsn/I2C_handler.c **** }
  52              		.loc 1 92 0
  53 001e 43B0     		add	sp, sp, #268
  54              		.cfi_def_cfa_offset 4
  55              		@ sp needed
  56 0020 5DF804FB 		ldr	pc, [sp], #4
  57              	.L4:
  58              		.align	2
  59              	.L3:
  60 0024 00000000 		.word	.LC0
  61              		.cfi_endproc
  62              	.LFE65:
  63              		.size	writeTempToUART, .-writeTempToUART
  64              		.global	__aeabi_ui2f
  65              		.global	__aeabi_fadd
  66              		.global	__aeabi_fsub
  67              		.section	.text.readTemp,"ax",%progbits
  68              		.align	2
  69              		.global	readTemp
  70              		.thumb
  71              		.thumb_func
  72              		.type	readTemp, %function
  73              	readTemp:
  74              	.LFB64:
  24:..\..\Labexercise2_Communicationbuses\Lab_I2C\Communicationbuses.cydsn/I2C_handler.c ****     //Variabler 
  75              		.loc 1 24 0
  76              		.cfi_startproc
  77              		@ args = 0, pretend = 0, frame = 0
  78              		@ frame_needed = 0, uses_anonymous_args = 0
ARM GAS  C:\Users\Simon\AppData\Local\Temp\ccADjWCj.s 			page 4


  79 0000 38B5     		push	{r3, r4, r5, lr}
  80              		.cfi_def_cfa_offset 16
  81              		.cfi_offset 3, -16
  82              		.cfi_offset 4, -12
  83              		.cfi_offset 5, -8
  84              		.cfi_offset 14, -4
  85              	.L6:
  32:..\..\Labexercise2_Communicationbuses\Lab_I2C\Communicationbuses.cydsn/I2C_handler.c ****     if (errorStatus[0] == I2C_1_MSTR_NO_ERROR)  // Tjekker for fejl
  86              		.loc 1 32 0
  87 0002 0121     		movs	r1, #1
  88 0004 4820     		movs	r0, #72
  89 0006 FFF7FEFF 		bl	I2C_1_MasterSendStart
  90              	.LVL4:
  33:..\..\Labexercise2_Communicationbuses\Lab_I2C\Communicationbuses.cydsn/I2C_handler.c ****         {
  91              		.loc 1 33 0
  92 000a 08BB     		cbnz	r0, .L7
  35:..\..\Labexercise2_Communicationbuses\Lab_I2C\Communicationbuses.cydsn/I2C_handler.c ****             dataRecv[1] = I2C_1_MasterReadByte(I2C_1_NAK_DATA);  // Læser LSB 8 bit hvor 0.5 finde
  93              		.loc 1 35 0
  94 000c 0120     		movs	r0, #1
  95 000e FFF7FEFF 		bl	I2C_1_MasterReadByte
  96              	.LVL5:
  97 0012 0446     		mov	r4, r0
  36:..\..\Labexercise2_Communicationbuses\Lab_I2C\Communicationbuses.cydsn/I2C_handler.c ****             I2C_1_MasterSendStop();    //  Data er opsamlet så der sendes stop til I2C master  
  98              		.loc 1 36 0
  99 0014 0020     		movs	r0, #0
 100 0016 FFF7FEFF 		bl	I2C_1_MasterReadByte
 101              	.LVL6:
 102 001a 0546     		mov	r5, r0
  37:..\..\Labexercise2_Communicationbuses\Lab_I2C\Communicationbuses.cydsn/I2C_handler.c **** 
 103              		.loc 1 37 0
 104 001c FFF7FEFF 		bl	I2C_1_MasterSendStop
 105              	.LVL7:
  39:..\..\Labexercise2_Communicationbuses\Lab_I2C\Communicationbuses.cydsn/I2C_handler.c ****             if(CHECK_BIT(dataRecv[1],7) == 1)  // Tjekker om det specifikke bit er 1, dvs at man ha
 106              		.loc 1 39 0
 107 0020 2046     		mov	r0, r4
 108 0022 FFF7FEFF 		bl	__aeabi_ui2f
 109              	.LVL8:
  40:..\..\Labexercise2_Communicationbuses\Lab_I2C\Communicationbuses.cydsn/I2C_handler.c ****             {
 110              		.loc 1 40 0
 111 0026 C5F3C715 		ubfx	r5, r5, #7, #8
 112 002a 1DB1     		cbz	r5, .L8
  42:..\..\Labexercise2_Communicationbuses\Lab_I2C\Communicationbuses.cydsn/I2C_handler.c ****             }
 113              		.loc 1 42 0
 114 002c 4FF07C51 		mov	r1, #1056964608
 115 0030 FFF7FEFF 		bl	__aeabi_fadd
 116              	.LVL9:
 117              	.L8:
  44:..\..\Labexercise2_Communicationbuses\Lab_I2C\Communicationbuses.cydsn/I2C_handler.c ****             {
 118              		.loc 1 44 0
 119 0034 C4F3C714 		ubfx	r4, r4, #7, #8
 120 0038 1CB1     		cbz	r4, .L9
  46:..\..\Labexercise2_Communicationbuses\Lab_I2C\Communicationbuses.cydsn/I2C_handler.c ****             }
 121              		.loc 1 46 0
 122 003a 4FF08641 		mov	r1, #1124073472
 123 003e FFF7FEFF 		bl	__aeabi_fsub
 124              	.LVL10:
 125              	.L9:
ARM GAS  C:\Users\Simon\AppData\Local\Temp\ccADjWCj.s 			page 5


  49:..\..\Labexercise2_Communicationbuses\Lab_I2C\Communicationbuses.cydsn/I2C_handler.c ****             CyDelay(1000);  // Delay med at få ny temperatur måling
 126              		.loc 1 49 0
 127 0042 FFF7FEFF 		bl	writeTempToUART
 128              	.LVL11:
  50:..\..\Labexercise2_Communicationbuses\Lab_I2C\Communicationbuses.cydsn/I2C_handler.c ****         }
 129              		.loc 1 50 0
 130 0046 4FF47A70 		mov	r0, #1000
 131 004a FFF7FEFF 		bl	CyDelay
 132              	.LVL12:
 133 004e D8E7     		b	.L6
 134              	.L7:
  52:..\..\Labexercise2_Communicationbuses\Lab_I2C\Communicationbuses.cydsn/I2C_handler.c ****         {
 135              		.loc 1 52 0
 136 0050 0128     		cmp	r0, #1
 137 0052 09D1     		bne	.L11
  54:..\..\Labexercise2_Communicationbuses\Lab_I2C\Communicationbuses.cydsn/I2C_handler.c ****           I2C_1_MasterSendStop();    //  Fejl så I2C master skal sende stop
 138              		.loc 1 54 0
 139 0054 1C48     		ldr	r0, .L16
 140 0056 FFF7FEFF 		bl	UART_1_PutString
 141              	.LVL13:
  55:..\..\Labexercise2_Communicationbuses\Lab_I2C\Communicationbuses.cydsn/I2C_handler.c ****           CyDelay(1000);  // Delay med næste temperatur måling
 142              		.loc 1 55 0
 143 005a FFF7FEFF 		bl	I2C_1_MasterSendStop
 144              	.LVL14:
  56:..\..\Labexercise2_Communicationbuses\Lab_I2C\Communicationbuses.cydsn/I2C_handler.c ****         }
 145              		.loc 1 56 0
 146 005e 4FF47A70 		mov	r0, #1000
 147 0062 FFF7FEFF 		bl	CyDelay
 148              	.LVL15:
 149 0066 CCE7     		b	.L6
 150              	.L11:
  58:..\..\Labexercise2_Communicationbuses\Lab_I2C\Communicationbuses.cydsn/I2C_handler.c ****         {
 151              		.loc 1 58 0
 152 0068 0228     		cmp	r0, #2
 153 006a 09D1     		bne	.L12
  60:..\..\Labexercise2_Communicationbuses\Lab_I2C\Communicationbuses.cydsn/I2C_handler.c ****           I2C_1_MasterSendStop();    //  Fejl så I2C master skal sende stop
 154              		.loc 1 60 0
 155 006c 1748     		ldr	r0, .L16+4
 156 006e FFF7FEFF 		bl	UART_1_PutString
 157              	.LVL16:
  61:..\..\Labexercise2_Communicationbuses\Lab_I2C\Communicationbuses.cydsn/I2C_handler.c ****           CyDelay(1000);  // Delay med næste temperatur måling
 158              		.loc 1 61 0
 159 0072 FFF7FEFF 		bl	I2C_1_MasterSendStop
 160              	.LVL17:
  62:..\..\Labexercise2_Communicationbuses\Lab_I2C\Communicationbuses.cydsn/I2C_handler.c ****         }
 161              		.loc 1 62 0
 162 0076 4FF47A70 		mov	r0, #1000
 163 007a FFF7FEFF 		bl	CyDelay
 164              	.LVL18:
 165 007e C0E7     		b	.L6
 166              	.L12:
  64:..\..\Labexercise2_Communicationbuses\Lab_I2C\Communicationbuses.cydsn/I2C_handler.c ****         {
 167              		.loc 1 64 0
 168 0080 0328     		cmp	r0, #3
 169 0082 09D1     		bne	.L13
  66:..\..\Labexercise2_Communicationbuses\Lab_I2C\Communicationbuses.cydsn/I2C_handler.c ****           I2C_1_MasterSendStop();    //  Fejl så I2C master skal sende stop
 170              		.loc 1 66 0
ARM GAS  C:\Users\Simon\AppData\Local\Temp\ccADjWCj.s 			page 6


 171 0084 1248     		ldr	r0, .L16+8
 172 0086 FFF7FEFF 		bl	UART_1_PutString
 173              	.LVL19:
  67:..\..\Labexercise2_Communicationbuses\Lab_I2C\Communicationbuses.cydsn/I2C_handler.c ****           CyDelay(1000);  // Delay med næste temperatur måling
 174              		.loc 1 67 0
 175 008a FFF7FEFF 		bl	I2C_1_MasterSendStop
 176              	.LVL20:
  68:..\..\Labexercise2_Communicationbuses\Lab_I2C\Communicationbuses.cydsn/I2C_handler.c ****         }
 177              		.loc 1 68 0
 178 008e 4FF47A70 		mov	r0, #1000
 179 0092 FFF7FEFF 		bl	CyDelay
 180              	.LVL21:
 181 0096 B4E7     		b	.L6
 182              	.L13:
  70:..\..\Labexercise2_Communicationbuses\Lab_I2C\Communicationbuses.cydsn/I2C_handler.c ****         {
 183              		.loc 1 70 0
 184 0098 0428     		cmp	r0, #4
 185 009a 09D1     		bne	.L14
  72:..\..\Labexercise2_Communicationbuses\Lab_I2C\Communicationbuses.cydsn/I2C_handler.c ****           I2C_1_MasterSendStop();    //  Fejl så I2C master skal sende stop
 186              		.loc 1 72 0
 187 009c 0D48     		ldr	r0, .L16+12
 188 009e FFF7FEFF 		bl	UART_1_PutString
 189              	.LVL22:
  73:..\..\Labexercise2_Communicationbuses\Lab_I2C\Communicationbuses.cydsn/I2C_handler.c ****           CyDelay(1000);  // Delay med næste temperatur måling
 190              		.loc 1 73 0
 191 00a2 FFF7FEFF 		bl	I2C_1_MasterSendStop
 192              	.LVL23:
  74:..\..\Labexercise2_Communicationbuses\Lab_I2C\Communicationbuses.cydsn/I2C_handler.c ****         }
 193              		.loc 1 74 0
 194 00a6 4FF47A70 		mov	r0, #1000
 195 00aa FFF7FEFF 		bl	CyDelay
 196              	.LVL24:
 197 00ae A8E7     		b	.L6
 198              	.L14:
  76:..\..\Labexercise2_Communicationbuses\Lab_I2C\Communicationbuses.cydsn/I2C_handler.c ****         {
 199              		.loc 1 76 0
 200 00b0 0528     		cmp	r0, #5
 201 00b2 A6D1     		bne	.L6
  78:..\..\Labexercise2_Communicationbuses\Lab_I2C\Communicationbuses.cydsn/I2C_handler.c ****           I2C_1_MasterSendStop();    //  Fejl så I2C master skal sende stop
 202              		.loc 1 78 0
 203 00b4 0848     		ldr	r0, .L16+16
 204 00b6 FFF7FEFF 		bl	UART_1_PutString
 205              	.LVL25:
  79:..\..\Labexercise2_Communicationbuses\Lab_I2C\Communicationbuses.cydsn/I2C_handler.c ****           CyDelay(1000);  // Delay med næste temperatur måling
 206              		.loc 1 79 0
 207 00ba FFF7FEFF 		bl	I2C_1_MasterSendStop
 208              	.LVL26:
  80:..\..\Labexercise2_Communicationbuses\Lab_I2C\Communicationbuses.cydsn/I2C_handler.c ****         }
 209              		.loc 1 80 0
 210 00be 4FF47A70 		mov	r0, #1000
 211 00c2 FFF7FEFF 		bl	CyDelay
 212              	.LVL27:
 213 00c6 9CE7     		b	.L6
 214              	.L17:
 215              		.align	2
 216              	.L16:
 217 00c8 10000000 		.word	.LC1
ARM GAS  C:\Users\Simon\AppData\Local\Temp\ccADjWCj.s 			page 7


 218 00cc 2C000000 		.word	.LC2
 219 00d0 48000000 		.word	.LC3
 220 00d4 68000000 		.word	.LC4
 221 00d8 88000000 		.word	.LC5
 222              		.cfi_endproc
 223              	.LFE64:
 224              		.size	readTemp, .-readTemp
 225              		.section	.rodata.str1.4,"aMS",%progbits,1
 226              		.align	2
 227              	.LC0:
 228 0000 54656D70 		.ascii	"Temp 1: %.2f \015\012\000"
 228      20313A20 
 228      252E3266 
 228      200D0A00 
 229              	.LC1:
 230 0010 4572726F 		.ascii	"Error I2C_1_MSTR_BUS_BUSY\012\000"
 230      72204932 
 230      435F315F 
 230      4D535452 
 230      5F425553 
 231 002b 00       		.space	1
 232              	.LC2:
 233 002c 4572726F 		.ascii	"Error I2C_1_MSTR_NOT_READY\012\000"
 233      72204932 
 233      435F315F 
 233      4D535452 
 233      5F4E4F54 
 234              	.LC3:
 235 0048 4572726F 		.ascii	"Error I2C_1_MSTR_ERR_LB_NAK\012\000"
 235      72204932 
 235      435F315F 
 235      4D535452 
 235      5F455252 
 236 0065 000000   		.space	3
 237              	.LC4:
 238 0068 4572726F 		.ascii	"Error I2C_1_MSTR_ERR_ARB_LOST\012\000"
 238      72204932 
 238      435F315F 
 238      4D535452 
 238      5F455252 
 239 0087 00       		.space	1
 240              	.LC5:
 241 0088 4572726F 		.ascii	"Error I2C_1_MSTR_ERR_ABORT_START_GE\012\000"
 241      72204932 
 241      435F315F 
 241      4D535452 
 241      5F455252 
 242              		.text
 243              	.Letext0:
 244              		.file 2 "c:\\program files (x86)\\cypress\\psoc creator\\4.3\\psoc creator\\import\\gnu\\arm\\5.4.
 245              		.file 3 "c:\\program files (x86)\\cypress\\psoc creator\\4.3\\psoc creator\\import\\gnu\\arm\\5.4.
 246              		.file 4 "Generated_Source\\PSoC5/cytypes.h"
 247              		.file 5 "c:\\program files (x86)\\cypress\\psoc creator\\4.3\\psoc creator\\import\\gnu\\arm\\5.4.
 248              		.file 6 "Generated_Source\\PSoC5/UART_1.h"
 249              		.file 7 "Generated_Source\\PSoC5/I2C_1.h"
 250              		.file 8 "Generated_Source\\PSoC5/CyLib.h"
 251              		.file 9 "Generated_Source\\PSoC5/core_cm3.h"
ARM GAS  C:\Users\Simon\AppData\Local\Temp\ccADjWCj.s 			page 8

