ARM GAS  C:\Users\Simon\AppData\Local\Temp\ccngvqHL.s 			page 1


   1              		.syntax unified
   2              		.cpu cortex-m3
   3              		.fpu softvfp
   4              		.eabi_attribute 20, 1
   5              		.eabi_attribute 21, 1
   6              		.eabi_attribute 23, 3
   7              		.eabi_attribute 24, 1
   8              		.eabi_attribute 25, 1
   9              		.eabi_attribute 26, 1
  10              		.eabi_attribute 30, 1
  11              		.eabi_attribute 34, 1
  12              		.eabi_attribute 18, 4
  13              		.thumb
  14              		.syntax unified
  15              		.file	"main.c"
  16              		.text
  17              	.Ltext0:
  18              		.cfi_sections	.debug_frame
  19              		.section	.text.main,"ax",%progbits
  20              		.align	2
  21              		.global	main
  22              		.thumb
  23              		.thumb_func
  24              		.type	main, %function
  25              	main:
  26              	.LFB63:
  27              		.file 1 "main.c"
   1:main.c        **** /* ========================================
   2:main.c        ****  *
   3:main.c        ****  * Copyright YOUR COMPANY, THE YEAR
   4:main.c        ****  * All Rights Reserved
   5:main.c        ****  * UNPUBLISHED, LICENSED SOFTWARE.
   6:main.c        ****  *
   7:main.c        ****  * CONFIDENTIAL AND PROPRIETARY INFORMATION
   8:main.c        ****  * WHICH IS THE PROPERTY OF your company.
   9:main.c        ****  *
  10:main.c        ****  * ========================================
  11:main.c        **** */
  12:main.c        **** #include "project.h"
  13:main.c        **** 
  14:main.c        **** CY_ISR_PROTO(ISR_UART_rx_handler);
  15:main.c        **** CY_ISR_PROTO(ISR_timer_handler);
  16:main.c        **** void handleByteReceived(uint8_t byteReceived);
  17:main.c        **** 
  18:main.c        **** void WaveDrive(), FullStep(), HalfStep(), Stop(), status(),
  19:main.c        **** skiftRet(),increaseSpeed(),decreaseSpeed();
  20:main.c        **** 
  21:main.c        **** uint8 High = 1, Low = 0;
  22:main.c        **** uint16 timerCount = 0;
  23:main.c        **** uint16 timerInterrupt = 1000;
  24:main.c        **** typedef enum  // Forskellige Modes
  25:main.c        **** {
  26:main.c        ****     Mode_WaveDrive,
  27:main.c        ****     Mode_FullStep,
  28:main.c        ****     Mode_HalfStep,
  29:main.c        ****     Mode_Stop
  30:main.c        **** }Mode;
ARM GAS  C:\Users\Simon\AppData\Local\Temp\ccngvqHL.s 			page 2


  31:main.c        **** 
  32:main.c        **** typedef enum  // De mulige positioner
  33:main.c        **** {
  34:main.c        ****     Position_A1,
  35:main.c        ****     Position_A2,
  36:main.c        ****     Position_B1,
  37:main.c        ****     Position_B2
  38:main.c        **** }Position;
  39:main.c        **** 
  40:main.c        **** typedef enum  // Hvilken retning steppermotor skal køre
  41:main.c        **** {
  42:main.c        ****    Rotate_F,
  43:main.c        ****    Rotate_B
  44:main.c        **** }Rotate;
  45:main.c        **** 
  46:main.c        **** static Mode modeChosen;
  47:main.c        **** static Rotate currRot = Rotate_F;
  48:main.c        **** static Position currPos = Position_A1;
  49:main.c        **** 
  50:main.c        **** int main(void)
  51:main.c        **** {
  28              		.loc 1 51 0
  29              		.cfi_startproc
  30              		@ Volatile: function does not return.
  31              		@ args = 0, pretend = 0, frame = 0
  32              		@ frame_needed = 0, uses_anonymous_args = 0
  33 0000 08B5     		push	{r3, lr}
  34              		.cfi_def_cfa_offset 8
  35              		.cfi_offset 3, -8
  36              		.cfi_offset 14, -4
  52:main.c        ****     CyGlobalIntEnable; /* Enable global interrupts. */
  37              		.loc 1 52 0
  38              		.syntax unified
  39              	@ 52 "main.c" 1
  40 0002 62B6     		CPSIE   i
  41              	@ 0 "" 2
  53:main.c        **** 
  54:main.c        ****     isr_uart_rx_StartEx(ISR_UART_rx_handler);
  42              		.loc 1 54 0
  43              		.thumb
  44              		.syntax unified
  45 0004 1148     		ldr	r0, .L4
  46 0006 FFF7FEFF 		bl	isr_uart_rx_StartEx
  47              	.LVL0:
  55:main.c        ****     isr_timer_StartEx(ISR_timer_handler);
  48              		.loc 1 55 0
  49 000a 1148     		ldr	r0, .L4+4
  50 000c FFF7FEFF 		bl	isr_timer_StartEx
  51              	.LVL1:
  56:main.c        ****     
  57:main.c        ****     UART_1_Start();
  52              		.loc 1 57 0
  53 0010 FFF7FEFF 		bl	UART_1_Start
  54              	.LVL2:
  58:main.c        ****     Timer_1_Start();
  55              		.loc 1 58 0
  56 0014 FFF7FEFF 		bl	Timer_1_Start
ARM GAS  C:\Users\Simon\AppData\Local\Temp\ccngvqHL.s 			page 3


  57              	.LVL3:
  59:main.c        ****     
  60:main.c        ****     UART_1_PutString("DC-Motor-PWM application started\r\n");
  58              		.loc 1 60 0
  59 0018 0E48     		ldr	r0, .L4+8
  60 001a FFF7FEFF 		bl	UART_1_PutString
  61              	.LVL4:
  61:main.c        ****     UART_1_PutString("1: WaveDrive\r\n");
  62              		.loc 1 61 0
  63 001e 0E48     		ldr	r0, .L4+12
  64 0020 FFF7FEFF 		bl	UART_1_PutString
  65              	.LVL5:
  62:main.c        ****     UART_1_PutString("2: FullStep\r\n");
  66              		.loc 1 62 0
  67 0024 0D48     		ldr	r0, .L4+16
  68 0026 FFF7FEFF 		bl	UART_1_PutString
  69              	.LVL6:
  63:main.c        ****     UART_1_PutString("3: HalfStep\r\n");
  70              		.loc 1 63 0
  71 002a 0D48     		ldr	r0, .L4+20
  72 002c FFF7FEFF 		bl	UART_1_PutString
  73              	.LVL7:
  64:main.c        ****     UART_1_PutString("4: Stop\r\n");
  74              		.loc 1 64 0
  75 0030 0C48     		ldr	r0, .L4+24
  76 0032 FFF7FEFF 		bl	UART_1_PutString
  77              	.LVL8:
  65:main.c        ****     UART_1_PutString("5: Rotate\r\n");
  78              		.loc 1 65 0
  79 0036 0C48     		ldr	r0, .L4+28
  80 0038 FFF7FEFF 		bl	UART_1_PutString
  81              	.LVL9:
  66:main.c        ****     UART_1_PutString("q: Increase speed\r\n");
  82              		.loc 1 66 0
  83 003c 0B48     		ldr	r0, .L4+32
  84 003e FFF7FEFF 		bl	UART_1_PutString
  85              	.LVL10:
  67:main.c        ****     UART_1_PutString("w: Decrease speed\r\n");    
  86              		.loc 1 67 0
  87 0042 0B48     		ldr	r0, .L4+36
  88 0044 FFF7FEFF 		bl	UART_1_PutString
  89              	.LVL11:
  90              	.L2:
  91 0048 FEE7     		b	.L2
  92              	.L5:
  93 004a 00BF     		.align	2
  94              	.L4:
  95 004c 00000000 		.word	ISR_UART_rx_handler
  96 0050 00000000 		.word	ISR_timer_handler
  97 0054 00000000 		.word	.LC0
  98 0058 24000000 		.word	.LC1
  99 005c 34000000 		.word	.LC2
 100 0060 44000000 		.word	.LC3
 101 0064 54000000 		.word	.LC4
 102 0068 60000000 		.word	.LC5
 103 006c 6C000000 		.word	.LC6
 104 0070 80000000 		.word	.LC7
ARM GAS  C:\Users\Simon\AppData\Local\Temp\ccngvqHL.s 			page 4


 105              		.cfi_endproc
 106              	.LFE63:
 107              		.size	main, .-main
 108              		.section	.text.WaveDrive,"ax",%progbits
 109              		.align	2
 110              		.global	WaveDrive
 111              		.thumb
 112              		.thumb_func
 113              		.type	WaveDrive, %function
 114              	WaveDrive:
 115              	.LFB67:
  68:main.c        ****     for(;;)
  69:main.c        ****     {}
  70:main.c        **** }
  71:main.c        **** 
  72:main.c        **** CY_ISR(ISR_timer_handler)
  73:main.c        **** {
  74:main.c        ****    timerCount++;
  75:main.c        ****     if(timerCount == timerInterrupt)
  76:main.c        ****     {
  77:main.c        ****         status();
  78:main.c        ****         timerCount = 0; 
  79:main.c        ****         
  80:main.c        ****     }
  81:main.c        **** }
  82:main.c        **** 
  83:main.c        **** CY_ISR(ISR_UART_rx_handler)
  84:main.c        **** {
  85:main.c        ****     uint8_t bytesToRead = UART_1_GetRxBufferSize();
  86:main.c        ****     while (bytesToRead > 0)
  87:main.c        ****     {
  88:main.c        ****         uint8_t byteReceived = UART_1_ReadRxData();
  89:main.c        ****         UART_1_WriteTxData(byteReceived); // echo back
  90:main.c        ****         
  91:main.c        ****         handleByteReceived(byteReceived);
  92:main.c        ****         
  93:main.c        ****         bytesToRead--;
  94:main.c        ****     }
  95:main.c        **** }
  96:main.c        **** 
  97:main.c        **** void handleByteReceived(uint8_t byteReceived)
  98:main.c        **** {
  99:main.c        ****     switch(byteReceived)
 100:main.c        ****     {
 101:main.c        ****         case '1' :
 102:main.c        ****         {
 103:main.c        ****             WaveDrive(); 
 104:main.c        ****         }
 105:main.c        ****         break;
 106:main.c        ****         case '2' :
 107:main.c        ****         {
 108:main.c        ****             FullStep();
 109:main.c        ****         }
 110:main.c        ****         break;
 111:main.c        ****         case '3' :
 112:main.c        ****         {
 113:main.c        ****             HalfStep();
ARM GAS  C:\Users\Simon\AppData\Local\Temp\ccngvqHL.s 			page 5


 114:main.c        ****         }
 115:main.c        ****         break;
 116:main.c        ****         case '4' :
 117:main.c        ****         {
 118:main.c        ****             Stop();
 119:main.c        ****         }
 120:main.c        ****         break;
 121:main.c        ****         case '5' :
 122:main.c        ****         {
 123:main.c        ****              skiftRet();  
 124:main.c        ****         }
 125:main.c        ****         case 'q' :
 126:main.c        ****         {
 127:main.c        ****             increaseSpeed();               
 128:main.c        ****         }
 129:main.c        ****         case 'w' :
 130:main.c        ****         {
 131:main.c        ****             decreaseSpeed();   
 132:main.c        ****         }
 133:main.c        ****         default :
 134:main.c        ****         {
 135:main.c        ****             // nothing
 136:main.c        ****         }
 137:main.c        ****         break;
 138:main.c        ****     }
 139:main.c        **** }
 140:main.c        **** 
 141:main.c        **** void WaveDrive()
 142:main.c        **** {
 116              		.loc 1 142 0
 117              		.cfi_startproc
 118              		@ args = 0, pretend = 0, frame = 0
 119              		@ frame_needed = 0, uses_anonymous_args = 0
 120 0000 08B5     		push	{r3, lr}
 121              		.cfi_def_cfa_offset 8
 122              		.cfi_offset 3, -8
 123              		.cfi_offset 14, -4
 143:main.c        ****     UART_1_PutString("WaveDrive");
 124              		.loc 1 143 0
 125 0002 0348     		ldr	r0, .L8
 126 0004 FFF7FEFF 		bl	UART_1_PutString
 127              	.LVL12:
 144:main.c        ****     modeChosen = Mode_WaveDrive;
 128              		.loc 1 144 0
 129 0008 0022     		movs	r2, #0
 130 000a 024B     		ldr	r3, .L8+4
 131 000c 1A70     		strb	r2, [r3]
 132 000e 08BD     		pop	{r3, pc}
 133              	.L9:
 134              		.align	2
 135              	.L8:
 136 0010 94000000 		.word	.LC8
 137 0014 00000000 		.word	.LANCHOR0
 138              		.cfi_endproc
 139              	.LFE67:
 140              		.size	WaveDrive, .-WaveDrive
 141              		.section	.text.FullStep,"ax",%progbits
ARM GAS  C:\Users\Simon\AppData\Local\Temp\ccngvqHL.s 			page 6


 142              		.align	2
 143              		.global	FullStep
 144              		.thumb
 145              		.thumb_func
 146              		.type	FullStep, %function
 147              	FullStep:
 148              	.LFB68:
 145:main.c        **** }
 146:main.c        **** 
 147:main.c        **** void FullStep()
 148:main.c        **** {
 149              		.loc 1 148 0
 150              		.cfi_startproc
 151              		@ args = 0, pretend = 0, frame = 0
 152              		@ frame_needed = 0, uses_anonymous_args = 0
 153 0000 08B5     		push	{r3, lr}
 154              		.cfi_def_cfa_offset 8
 155              		.cfi_offset 3, -8
 156              		.cfi_offset 14, -4
 149:main.c        ****     UART_1_PutString("FullStep");
 157              		.loc 1 149 0
 158 0002 0348     		ldr	r0, .L12
 159 0004 FFF7FEFF 		bl	UART_1_PutString
 160              	.LVL13:
 150:main.c        ****     modeChosen = Mode_FullStep;
 161              		.loc 1 150 0
 162 0008 0122     		movs	r2, #1
 163 000a 024B     		ldr	r3, .L12+4
 164 000c 1A70     		strb	r2, [r3]
 165 000e 08BD     		pop	{r3, pc}
 166              	.L13:
 167              		.align	2
 168              	.L12:
 169 0010 A0000000 		.word	.LC9
 170 0014 00000000 		.word	.LANCHOR0
 171              		.cfi_endproc
 172              	.LFE68:
 173              		.size	FullStep, .-FullStep
 174              		.section	.text.HalfStep,"ax",%progbits
 175              		.align	2
 176              		.global	HalfStep
 177              		.thumb
 178              		.thumb_func
 179              		.type	HalfStep, %function
 180              	HalfStep:
 181              	.LFB69:
 151:main.c        **** }
 152:main.c        **** 
 153:main.c        **** void HalfStep()
 154:main.c        **** {
 182              		.loc 1 154 0
 183              		.cfi_startproc
 184              		@ args = 0, pretend = 0, frame = 0
 185              		@ frame_needed = 0, uses_anonymous_args = 0
 186 0000 08B5     		push	{r3, lr}
 187              		.cfi_def_cfa_offset 8
 188              		.cfi_offset 3, -8
ARM GAS  C:\Users\Simon\AppData\Local\Temp\ccngvqHL.s 			page 7


 189              		.cfi_offset 14, -4
 155:main.c        ****     UART_1_PutString("HalfStep");
 190              		.loc 1 155 0
 191 0002 0348     		ldr	r0, .L16
 192 0004 FFF7FEFF 		bl	UART_1_PutString
 193              	.LVL14:
 156:main.c        ****     modeChosen = Mode_HalfStep;
 194              		.loc 1 156 0
 195 0008 0222     		movs	r2, #2
 196 000a 024B     		ldr	r3, .L16+4
 197 000c 1A70     		strb	r2, [r3]
 198 000e 08BD     		pop	{r3, pc}
 199              	.L17:
 200              		.align	2
 201              	.L16:
 202 0010 AC000000 		.word	.LC10
 203 0014 00000000 		.word	.LANCHOR0
 204              		.cfi_endproc
 205              	.LFE69:
 206              		.size	HalfStep, .-HalfStep
 207              		.section	.text.Stop,"ax",%progbits
 208              		.align	2
 209              		.global	Stop
 210              		.thumb
 211              		.thumb_func
 212              		.type	Stop, %function
 213              	Stop:
 214              	.LFB70:
 157:main.c        **** }
 158:main.c        **** 
 159:main.c        **** void Stop()
 160:main.c        **** {
 215              		.loc 1 160 0
 216              		.cfi_startproc
 217              		@ args = 0, pretend = 0, frame = 0
 218              		@ frame_needed = 0, uses_anonymous_args = 0
 219 0000 08B5     		push	{r3, lr}
 220              		.cfi_def_cfa_offset 8
 221              		.cfi_offset 3, -8
 222              		.cfi_offset 14, -4
 161:main.c        ****     UART_1_PutString("Stop");
 223              		.loc 1 161 0
 224 0002 0348     		ldr	r0, .L20
 225 0004 FFF7FEFF 		bl	UART_1_PutString
 226              	.LVL15:
 162:main.c        ****     modeChosen = Mode_Stop;
 227              		.loc 1 162 0
 228 0008 0322     		movs	r2, #3
 229 000a 024B     		ldr	r3, .L20+4
 230 000c 1A70     		strb	r2, [r3]
 231 000e 08BD     		pop	{r3, pc}
 232              	.L21:
 233              		.align	2
 234              	.L20:
 235 0010 B8000000 		.word	.LC11
 236 0014 00000000 		.word	.LANCHOR0
 237              		.cfi_endproc
ARM GAS  C:\Users\Simon\AppData\Local\Temp\ccngvqHL.s 			page 8


 238              	.LFE70:
 239              		.size	Stop, .-Stop
 240              		.section	.text.skiftRet,"ax",%progbits
 241              		.align	2
 242              		.global	skiftRet
 243              		.thumb
 244              		.thumb_func
 245              		.type	skiftRet, %function
 246              	skiftRet:
 247              	.LFB71:
 163:main.c        **** }
 164:main.c        **** 
 165:main.c        **** void skiftRet()
 166:main.c        **** {
 248              		.loc 1 166 0
 249              		.cfi_startproc
 250              		@ args = 0, pretend = 0, frame = 0
 251              		@ frame_needed = 0, uses_anonymous_args = 0
 252              		@ link register save eliminated.
 167:main.c        ****     if(currRot == Rotate_F)
 253              		.loc 1 167 0
 254 0000 054B     		ldr	r3, .L25
 255 0002 5B78     		ldrb	r3, [r3, #1]	@ zero_extendqisi2
 256 0004 1BB9     		cbnz	r3, .L23
 168:main.c        ****     {
 169:main.c        ****         currRot = Rotate_B;
 257              		.loc 1 169 0
 258 0006 0122     		movs	r2, #1
 259 0008 034B     		ldr	r3, .L25
 260 000a 5A70     		strb	r2, [r3, #1]
 261 000c 7047     		bx	lr
 262              	.L23:
 170:main.c        ****     }
 171:main.c        ****     else
 172:main.c        ****     {
 173:main.c        ****         currRot = Rotate_F;   
 263              		.loc 1 173 0
 264 000e 0022     		movs	r2, #0
 265 0010 014B     		ldr	r3, .L25
 266 0012 5A70     		strb	r2, [r3, #1]
 267 0014 7047     		bx	lr
 268              	.L26:
 269 0016 00BF     		.align	2
 270              	.L25:
 271 0018 00000000 		.word	.LANCHOR0
 272              		.cfi_endproc
 273              	.LFE71:
 274              		.size	skiftRet, .-skiftRet
 275              		.section	.text.increaseSpeed,"ax",%progbits
 276              		.align	2
 277              		.global	increaseSpeed
 278              		.thumb
 279              		.thumb_func
 280              		.type	increaseSpeed, %function
 281              	increaseSpeed:
 282              	.LFB72:
 174:main.c        ****     }
ARM GAS  C:\Users\Simon\AppData\Local\Temp\ccngvqHL.s 			page 9


 175:main.c        **** }
 176:main.c        **** 
 177:main.c        **** void increaseSpeed()
 178:main.c        **** {
 283              		.loc 1 178 0
 284              		.cfi_startproc
 285              		@ args = 0, pretend = 0, frame = 0
 286              		@ frame_needed = 0, uses_anonymous_args = 0
 287              		@ link register save eliminated.
 179:main.c        ****     if(timerInterrupt >= 0 && timerInterrupt < 5000)
 288              		.loc 1 179 0
 289 0000 044B     		ldr	r3, .L29
 290 0002 1B88     		ldrh	r3, [r3]
 291 0004 41F28732 		movw	r2, #4999
 292 0008 9342     		cmp	r3, r2
 293 000a 02D8     		bhi	.L27
 180:main.c        ****     {
 181:main.c        ****         timerInterrupt = timerInterrupt + 250;
 294              		.loc 1 181 0
 295 000c FA33     		adds	r3, r3, #250
 296 000e 014A     		ldr	r2, .L29
 297 0010 1380     		strh	r3, [r2]	@ movhi
 298              	.L27:
 299 0012 7047     		bx	lr
 300              	.L30:
 301              		.align	2
 302              	.L29:
 303 0014 00000000 		.word	.LANCHOR1
 304              		.cfi_endproc
 305              	.LFE72:
 306              		.size	increaseSpeed, .-increaseSpeed
 307              		.section	.text.decreaseSpeed,"ax",%progbits
 308              		.align	2
 309              		.global	decreaseSpeed
 310              		.thumb
 311              		.thumb_func
 312              		.type	decreaseSpeed, %function
 313              	decreaseSpeed:
 314              	.LFB73:
 182:main.c        ****     }
 183:main.c        **** }
 184:main.c        **** 
 185:main.c        **** void decreaseSpeed()
 186:main.c        **** {
 315              		.loc 1 186 0
 316              		.cfi_startproc
 317              		@ args = 0, pretend = 0, frame = 0
 318              		@ frame_needed = 0, uses_anonymous_args = 0
 319              		@ link register save eliminated.
 187:main.c        ****     if(timerInterrupt > 0 && timerInterrupt <= 5000)
 320              		.loc 1 187 0
 321 0000 054B     		ldr	r3, .L33
 322 0002 1A88     		ldrh	r2, [r3]
 323 0004 531E     		subs	r3, r2, #1
 324 0006 9BB2     		uxth	r3, r3
 325 0008 41F28731 		movw	r1, #4999
 326 000c 8B42     		cmp	r3, r1
ARM GAS  C:\Users\Simon\AppData\Local\Temp\ccngvqHL.s 			page 10


 327 000e 02D8     		bhi	.L31
 188:main.c        ****     {
 189:main.c        ****         timerInterrupt = timerInterrupt - 250;
 328              		.loc 1 189 0
 329 0010 FA3A     		subs	r2, r2, #250
 330 0012 014B     		ldr	r3, .L33
 331 0014 1A80     		strh	r2, [r3]	@ movhi
 332              	.L31:
 333 0016 7047     		bx	lr
 334              	.L34:
 335              		.align	2
 336              	.L33:
 337 0018 00000000 		.word	.LANCHOR1
 338              		.cfi_endproc
 339              	.LFE73:
 340              		.size	decreaseSpeed, .-decreaseSpeed
 341              		.section	.text.handleByteReceived,"ax",%progbits
 342              		.align	2
 343              		.global	handleByteReceived
 344              		.thumb
 345              		.thumb_func
 346              		.type	handleByteReceived, %function
 347              	handleByteReceived:
 348              	.LFB66:
  98:main.c        ****     switch(byteReceived)
 349              		.loc 1 98 0
 350              		.cfi_startproc
 351              		@ args = 0, pretend = 0, frame = 0
 352              		@ frame_needed = 0, uses_anonymous_args = 0
 353              	.LVL16:
 354 0000 08B5     		push	{r3, lr}
 355              		.cfi_def_cfa_offset 8
 356              		.cfi_offset 3, -8
 357              		.cfi_offset 14, -4
  99:main.c        ****     {
 358              		.loc 1 99 0
 359 0002 3138     		subs	r0, r0, #49
 360              	.LVL17:
 361 0004 4628     		cmp	r0, #70
 362 0006 37D8     		bhi	.L35
 363 0008 DFE800F0 		tbb	[pc, r0]
 364              	.L38:
 365 000c 24       		.byte	(.L37-.L38)/2
 366 000d 27       		.byte	(.L39-.L38)/2
 367 000e 2A       		.byte	(.L40-.L38)/2
 368 000f 2D       		.byte	(.L41-.L38)/2
 369 0010 30       		.byte	(.L42-.L38)/2
 370 0011 36       		.byte	(.L35-.L38)/2
 371 0012 36       		.byte	(.L35-.L38)/2
 372 0013 36       		.byte	(.L35-.L38)/2
 373 0014 36       		.byte	(.L35-.L38)/2
 374 0015 36       		.byte	(.L35-.L38)/2
 375 0016 36       		.byte	(.L35-.L38)/2
 376 0017 36       		.byte	(.L35-.L38)/2
 377 0018 36       		.byte	(.L35-.L38)/2
 378 0019 36       		.byte	(.L35-.L38)/2
 379 001a 36       		.byte	(.L35-.L38)/2
ARM GAS  C:\Users\Simon\AppData\Local\Temp\ccngvqHL.s 			page 11


 380 001b 36       		.byte	(.L35-.L38)/2
 381 001c 36       		.byte	(.L35-.L38)/2
 382 001d 36       		.byte	(.L35-.L38)/2
 383 001e 36       		.byte	(.L35-.L38)/2
 384 001f 36       		.byte	(.L35-.L38)/2
 385 0020 36       		.byte	(.L35-.L38)/2
 386 0021 36       		.byte	(.L35-.L38)/2
 387 0022 36       		.byte	(.L35-.L38)/2
 388 0023 36       		.byte	(.L35-.L38)/2
 389 0024 36       		.byte	(.L35-.L38)/2
 390 0025 36       		.byte	(.L35-.L38)/2
 391 0026 36       		.byte	(.L35-.L38)/2
 392 0027 36       		.byte	(.L35-.L38)/2
 393 0028 36       		.byte	(.L35-.L38)/2
 394 0029 36       		.byte	(.L35-.L38)/2
 395 002a 36       		.byte	(.L35-.L38)/2
 396 002b 36       		.byte	(.L35-.L38)/2
 397 002c 36       		.byte	(.L35-.L38)/2
 398 002d 36       		.byte	(.L35-.L38)/2
 399 002e 36       		.byte	(.L35-.L38)/2
 400 002f 36       		.byte	(.L35-.L38)/2
 401 0030 36       		.byte	(.L35-.L38)/2
 402 0031 36       		.byte	(.L35-.L38)/2
 403 0032 36       		.byte	(.L35-.L38)/2
 404 0033 36       		.byte	(.L35-.L38)/2
 405 0034 36       		.byte	(.L35-.L38)/2
 406 0035 36       		.byte	(.L35-.L38)/2
 407 0036 36       		.byte	(.L35-.L38)/2
 408 0037 36       		.byte	(.L35-.L38)/2
 409 0038 36       		.byte	(.L35-.L38)/2
 410 0039 36       		.byte	(.L35-.L38)/2
 411 003a 36       		.byte	(.L35-.L38)/2
 412 003b 36       		.byte	(.L35-.L38)/2
 413 003c 36       		.byte	(.L35-.L38)/2
 414 003d 36       		.byte	(.L35-.L38)/2
 415 003e 36       		.byte	(.L35-.L38)/2
 416 003f 36       		.byte	(.L35-.L38)/2
 417 0040 36       		.byte	(.L35-.L38)/2
 418 0041 36       		.byte	(.L35-.L38)/2
 419 0042 36       		.byte	(.L35-.L38)/2
 420 0043 36       		.byte	(.L35-.L38)/2
 421 0044 36       		.byte	(.L35-.L38)/2
 422 0045 36       		.byte	(.L35-.L38)/2
 423 0046 36       		.byte	(.L35-.L38)/2
 424 0047 36       		.byte	(.L35-.L38)/2
 425 0048 36       		.byte	(.L35-.L38)/2
 426 0049 36       		.byte	(.L35-.L38)/2
 427 004a 36       		.byte	(.L35-.L38)/2
 428 004b 36       		.byte	(.L35-.L38)/2
 429 004c 32       		.byte	(.L43-.L38)/2
 430 004d 36       		.byte	(.L35-.L38)/2
 431 004e 36       		.byte	(.L35-.L38)/2
 432 004f 36       		.byte	(.L35-.L38)/2
 433 0050 36       		.byte	(.L35-.L38)/2
 434 0051 36       		.byte	(.L35-.L38)/2
 435 0052 34       		.byte	(.L44-.L38)/2
 436 0053 00       		.p2align 1
ARM GAS  C:\Users\Simon\AppData\Local\Temp\ccngvqHL.s 			page 12


 437              	.L37:
 103:main.c        ****         }
 438              		.loc 1 103 0
 439 0054 FFF7FEFF 		bl	WaveDrive
 440              	.LVL18:
 105:main.c        ****         case '2' :
 441              		.loc 1 105 0
 442 0058 08BD     		pop	{r3, pc}
 443              	.L39:
 108:main.c        ****         }
 444              		.loc 1 108 0
 445 005a FFF7FEFF 		bl	FullStep
 446              	.LVL19:
 110:main.c        ****         case '3' :
 447              		.loc 1 110 0
 448 005e 08BD     		pop	{r3, pc}
 449              	.L40:
 113:main.c        ****         }
 450              		.loc 1 113 0
 451 0060 FFF7FEFF 		bl	HalfStep
 452              	.LVL20:
 115:main.c        ****         case '4' :
 453              		.loc 1 115 0
 454 0064 08BD     		pop	{r3, pc}
 455              	.L41:
 118:main.c        ****         }
 456              		.loc 1 118 0
 457 0066 FFF7FEFF 		bl	Stop
 458              	.LVL21:
 120:main.c        ****         case '5' :
 459              		.loc 1 120 0
 460 006a 08BD     		pop	{r3, pc}
 461              	.L42:
 123:main.c        ****         }
 462              		.loc 1 123 0
 463 006c FFF7FEFF 		bl	skiftRet
 464              	.LVL22:
 465              	.L43:
 127:main.c        ****         }
 466              		.loc 1 127 0
 467 0070 FFF7FEFF 		bl	increaseSpeed
 468              	.LVL23:
 469              	.L44:
 131:main.c        ****         }
 470              		.loc 1 131 0
 471 0074 FFF7FEFF 		bl	decreaseSpeed
 472              	.LVL24:
 473              	.L35:
 474 0078 08BD     		pop	{r3, pc}
 475              		.cfi_endproc
 476              	.LFE66:
 477              		.size	handleByteReceived, .-handleByteReceived
 478 007a 00BF     		.section	.text.ISR_UART_rx_handler,"ax",%progbits
 479              		.align	2
 480              		.global	ISR_UART_rx_handler
 481              		.thumb
 482              		.thumb_func
ARM GAS  C:\Users\Simon\AppData\Local\Temp\ccngvqHL.s 			page 13


 483              		.type	ISR_UART_rx_handler, %function
 484              	ISR_UART_rx_handler:
 485              	.LFB65:
  84:main.c        ****     uint8_t bytesToRead = UART_1_GetRxBufferSize();
 486              		.loc 1 84 0
 487              		.cfi_startproc
 488              		@ args = 0, pretend = 0, frame = 0
 489              		@ frame_needed = 0, uses_anonymous_args = 0
 490 0000 38B5     		push	{r3, r4, r5, lr}
 491              		.cfi_def_cfa_offset 16
 492              		.cfi_offset 3, -16
 493              		.cfi_offset 4, -12
 494              		.cfi_offset 5, -8
 495              		.cfi_offset 14, -4
  85:main.c        ****     while (bytesToRead > 0)
 496              		.loc 1 85 0
 497 0002 FFF7FEFF 		bl	UART_1_GetRxBufferSize
 498              	.LVL25:
 499 0006 0446     		mov	r4, r0
 500              	.LVL26:
  86:main.c        ****     {
 501              		.loc 1 86 0
 502 0008 09E0     		b	.L47
 503              	.L48:
 504              	.LBB2:
  88:main.c        ****         UART_1_WriteTxData(byteReceived); // echo back
 505              		.loc 1 88 0
 506 000a FFF7FEFF 		bl	UART_1_ReadRxData
 507              	.LVL27:
 508 000e 0546     		mov	r5, r0
 509              	.LVL28:
  89:main.c        ****         
 510              		.loc 1 89 0
 511 0010 FFF7FEFF 		bl	UART_1_WriteTxData
 512              	.LVL29:
  91:main.c        ****         
 513              		.loc 1 91 0
 514 0014 2846     		mov	r0, r5
 515 0016 FFF7FEFF 		bl	handleByteReceived
 516              	.LVL30:
  93:main.c        ****     }
 517              		.loc 1 93 0
 518 001a 013C     		subs	r4, r4, #1
 519              	.LVL31:
 520 001c E4B2     		uxtb	r4, r4
 521              	.LVL32:
 522              	.L47:
 523              	.LBE2:
  86:main.c        ****     {
 524              		.loc 1 86 0
 525 001e 002C     		cmp	r4, #0
 526 0020 F3D1     		bne	.L48
  95:main.c        **** 
 527              		.loc 1 95 0
 528 0022 38BD     		pop	{r3, r4, r5, pc}
 529              		.cfi_endproc
 530              	.LFE65:
ARM GAS  C:\Users\Simon\AppData\Local\Temp\ccngvqHL.s 			page 14


 531              		.size	ISR_UART_rx_handler, .-ISR_UART_rx_handler
 532              		.section	.text.status,"ax",%progbits
 533              		.align	2
 534              		.global	status
 535              		.thumb
 536              		.thumb_func
 537              		.type	status, %function
 538              	status:
 539              	.LFB74:
 190:main.c        ****     }
 191:main.c        **** }
 192:main.c        **** 
 193:main.c        **** void status()
 194:main.c        **** {
 540              		.loc 1 194 0
 541              		.cfi_startproc
 542              		@ args = 0, pretend = 0, frame = 0
 543              		@ frame_needed = 0, uses_anonymous_args = 0
 544 0000 38B5     		push	{r3, r4, r5, lr}
 545              		.cfi_def_cfa_offset 16
 546              		.cfi_offset 3, -16
 547              		.cfi_offset 4, -12
 548              		.cfi_offset 5, -8
 549              		.cfi_offset 14, -4
 195:main.c        ****     switch(modeChosen)
 550              		.loc 1 195 0
 551 0002 9D4B     		ldr	r3, .L79
 552 0004 1B78     		ldrb	r3, [r3]	@ zero_extendqisi2
 553 0006 1BB1     		cbz	r3, .L52
 554 0008 012B     		cmp	r3, #1
 555 000a 00F0B980 		beq	.L53
 556 000e 38BD     		pop	{r3, r4, r5, pc}
 557              	.L52:
 196:main.c        ****     {
 197:main.c        ****         case Mode_WaveDrive:   // Mode
 198:main.c        ****             switch(currRot)        // Retning
 558              		.loc 1 198 0
 559 0010 994B     		ldr	r3, .L79
 560 0012 5B78     		ldrb	r3, [r3, #1]	@ zero_extendqisi2
 561 0014 13B1     		cbz	r3, .L54
 562 0016 012B     		cmp	r3, #1
 563 0018 59D0     		beq	.L55
 564 001a 38BD     		pop	{r3, r4, r5, pc}
 565              	.L54:
 199:main.c        ****             {
 200:main.c        ****                 case Rotate_F:   
 201:main.c        ****                     switch(currPos)   // Position
 566              		.loc 1 201 0
 567 001c 964B     		ldr	r3, .L79
 568 001e 9B78     		ldrb	r3, [r3, #2]	@ zero_extendqisi2
 569 0020 032B     		cmp	r3, #3
 570 0022 00F27881 		bhi	.L50
 571 0026 DFE803F0 		tbb	[pc, r3]
 572              	.L57:
 573 002a 02       		.byte	(.L56-.L57)/2
 574 002b 2A       		.byte	(.L58-.L57)/2
 575 002c 16       		.byte	(.L59-.L57)/2
ARM GAS  C:\Users\Simon\AppData\Local\Temp\ccngvqHL.s 			page 15


 576 002d 3E       		.byte	(.L60-.L57)/2
 577              		.p2align 1
 578              	.L56:
 202:main.c        ****                     {
 203:main.c        ****                         case Position_A1:   // Pin_1a ON HVID LEDNING
 204:main.c        ****                             UART_1_PutString("A");
 579              		.loc 1 204 0
 580 002e 9348     		ldr	r0, .L79+4
 581 0030 FFF7FEFF 		bl	UART_1_PutString
 582              	.LVL33:
 205:main.c        ****                             Pin_1a_Write(High);  
 583              		.loc 1 205 0
 584 0034 924B     		ldr	r3, .L79+8
 585 0036 9878     		ldrb	r0, [r3, #2]	@ zero_extendqisi2
 586 0038 FFF7FEFF 		bl	Pin_1a_Write
 587              	.LVL34:
 206:main.c        ****                             Pin_1b_Write(Low);                            
 588              		.loc 1 206 0
 589 003c 8E4C     		ldr	r4, .L79
 590 003e E078     		ldrb	r0, [r4, #3]	@ zero_extendqisi2
 591 0040 FFF7FEFF 		bl	Pin_1b_Write
 592              	.LVL35:
 207:main.c        ****                             Pin_2a_Write(Low);                            
 593              		.loc 1 207 0
 594 0044 E078     		ldrb	r0, [r4, #3]	@ zero_extendqisi2
 595 0046 FFF7FEFF 		bl	Pin_2a_Write
 596              	.LVL36:
 208:main.c        ****                             Pin_2b_Write(Low);
 597              		.loc 1 208 0
 598 004a E078     		ldrb	r0, [r4, #3]	@ zero_extendqisi2
 599 004c FFF7FEFF 		bl	Pin_2b_Write
 600              	.LVL37:
 209:main.c        ****                             currPos = Position_B1;
 601              		.loc 1 209 0
 602 0050 0223     		movs	r3, #2
 603 0052 A370     		strb	r3, [r4, #2]
 210:main.c        ****                         break;
 604              		.loc 1 210 0
 605 0054 38BD     		pop	{r3, r4, r5, pc}
 606              	.L59:
 211:main.c        ****                         case Position_B1:  // Pin_1b ON BLÅ LEDNING
 212:main.c        ****                             UART_1_PutString("B");
 607              		.loc 1 212 0
 608 0056 8B48     		ldr	r0, .L79+12
 609 0058 FFF7FEFF 		bl	UART_1_PutString
 610              	.LVL38:
 213:main.c        ****                             Pin_1a_Write(Low);
 611              		.loc 1 213 0
 612 005c 864C     		ldr	r4, .L79
 613 005e E078     		ldrb	r0, [r4, #3]	@ zero_extendqisi2
 614 0060 FFF7FEFF 		bl	Pin_1a_Write
 615              	.LVL39:
 214:main.c        ****                             Pin_1b_Write(High);                            
 616              		.loc 1 214 0
 617 0064 864B     		ldr	r3, .L79+8
 618 0066 9878     		ldrb	r0, [r3, #2]	@ zero_extendqisi2
 619 0068 FFF7FEFF 		bl	Pin_1b_Write
ARM GAS  C:\Users\Simon\AppData\Local\Temp\ccngvqHL.s 			page 16


 620              	.LVL40:
 215:main.c        ****                             Pin_2a_Write(Low);                            
 621              		.loc 1 215 0
 622 006c E078     		ldrb	r0, [r4, #3]	@ zero_extendqisi2
 623 006e FFF7FEFF 		bl	Pin_2a_Write
 624              	.LVL41:
 216:main.c        ****                             Pin_2b_Write(Low);
 625              		.loc 1 216 0
 626 0072 E078     		ldrb	r0, [r4, #3]	@ zero_extendqisi2
 627 0074 FFF7FEFF 		bl	Pin_2b_Write
 628              	.LVL42:
 217:main.c        ****                             currPos = Position_A2;
 629              		.loc 1 217 0
 630 0078 0123     		movs	r3, #1
 631 007a A370     		strb	r3, [r4, #2]
 218:main.c        ****                         break;                                                     
 632              		.loc 1 218 0
 633 007c 38BD     		pop	{r3, r4, r5, pc}
 634              	.L58:
 219:main.c        ****                             
 220:main.c        ****                         case Position_A2:  // Pin_2a ON RØD Ledning
 221:main.c        ****                             UART_1_PutString("A/");
 635              		.loc 1 221 0
 636 007e 8248     		ldr	r0, .L79+16
 637 0080 FFF7FEFF 		bl	UART_1_PutString
 638              	.LVL43:
 222:main.c        ****                             Pin_1a_Write(Low);
 639              		.loc 1 222 0
 640 0084 7C4C     		ldr	r4, .L79
 641 0086 E078     		ldrb	r0, [r4, #3]	@ zero_extendqisi2
 642 0088 FFF7FEFF 		bl	Pin_1a_Write
 643              	.LVL44:
 223:main.c        ****                             Pin_1b_Write(Low);                            
 644              		.loc 1 223 0
 645 008c E078     		ldrb	r0, [r4, #3]	@ zero_extendqisi2
 646 008e FFF7FEFF 		bl	Pin_1b_Write
 647              	.LVL45:
 224:main.c        ****                             Pin_2a_Write(High);                            
 648              		.loc 1 224 0
 649 0092 7B4B     		ldr	r3, .L79+8
 650 0094 9878     		ldrb	r0, [r3, #2]	@ zero_extendqisi2
 651 0096 FFF7FEFF 		bl	Pin_2a_Write
 652              	.LVL46:
 225:main.c        ****                             Pin_2b_Write(Low);
 653              		.loc 1 225 0
 654 009a E078     		ldrb	r0, [r4, #3]	@ zero_extendqisi2
 655 009c FFF7FEFF 		bl	Pin_2b_Write
 656              	.LVL47:
 226:main.c        ****                             currPos = Position_B2;
 657              		.loc 1 226 0
 658 00a0 0323     		movs	r3, #3
 659 00a2 A370     		strb	r3, [r4, #2]
 227:main.c        ****                         break;
 660              		.loc 1 227 0
 661 00a4 38BD     		pop	{r3, r4, r5, pc}
 662              	.L60:
 228:main.c        ****                             
ARM GAS  C:\Users\Simon\AppData\Local\Temp\ccngvqHL.s 			page 17


 229:main.c        ****                         case Position_B2:  // Pin_2b ON GUL LEDNING
 230:main.c        ****                             UART_1_PutString("B/");
 663              		.loc 1 230 0
 664 00a6 7948     		ldr	r0, .L79+20
 665 00a8 FFF7FEFF 		bl	UART_1_PutString
 666              	.LVL48:
 231:main.c        ****                             Pin_1a_Write(Low);
 667              		.loc 1 231 0
 668 00ac 724C     		ldr	r4, .L79
 669 00ae E078     		ldrb	r0, [r4, #3]	@ zero_extendqisi2
 670 00b0 FFF7FEFF 		bl	Pin_1a_Write
 671              	.LVL49:
 232:main.c        ****                             Pin_1b_Write(Low);
 672              		.loc 1 232 0
 673 00b4 E078     		ldrb	r0, [r4, #3]	@ zero_extendqisi2
 674 00b6 FFF7FEFF 		bl	Pin_1b_Write
 675              	.LVL50:
 233:main.c        ****                             Pin_2a_Write(Low);
 676              		.loc 1 233 0
 677 00ba E078     		ldrb	r0, [r4, #3]	@ zero_extendqisi2
 678 00bc FFF7FEFF 		bl	Pin_2a_Write
 679              	.LVL51:
 234:main.c        ****                             Pin_2b_Write(High);
 680              		.loc 1 234 0
 681 00c0 6F4B     		ldr	r3, .L79+8
 682 00c2 9878     		ldrb	r0, [r3, #2]	@ zero_extendqisi2
 683 00c4 FFF7FEFF 		bl	Pin_2b_Write
 684              	.LVL52:
 235:main.c        ****                             currPos = Position_A1;
 685              		.loc 1 235 0
 686 00c8 0023     		movs	r3, #0
 687 00ca A370     		strb	r3, [r4, #2]
 236:main.c        ****                         break;                
 688              		.loc 1 236 0
 689 00cc 38BD     		pop	{r3, r4, r5, pc}
 690              	.L55:
 237:main.c        ****                     }
 238:main.c        ****                             
 239:main.c        ****                 break;
 240:main.c        ****                 case Rotate_B:
 241:main.c        ****                     switch(currPos)   // Position
 691              		.loc 1 241 0
 692 00ce 6A4B     		ldr	r3, .L79
 693 00d0 9B78     		ldrb	r3, [r3, #2]	@ zero_extendqisi2
 694 00d2 032B     		cmp	r3, #3
 695 00d4 00F21F81 		bhi	.L50
 696 00d8 DFE803F0 		tbb	[pc, r3]
 697              	.L62:
 698 00dc 02       		.byte	(.L61-.L62)/2
 699 00dd 2A       		.byte	(.L63-.L62)/2
 700 00de 3E       		.byte	(.L64-.L62)/2
 701 00df 16       		.byte	(.L65-.L62)/2
 702              		.p2align 1
 703              	.L61:
 242:main.c        ****                     {
 243:main.c        ****                             case Position_A1:
 244:main.c        ****                             UART_1_PutString("A");
ARM GAS  C:\Users\Simon\AppData\Local\Temp\ccngvqHL.s 			page 18


 704              		.loc 1 244 0
 705 00e0 6648     		ldr	r0, .L79+4
 706 00e2 FFF7FEFF 		bl	UART_1_PutString
 707              	.LVL53:
 245:main.c        ****                             Pin_1a_Write(High);  
 708              		.loc 1 245 0
 709 00e6 664B     		ldr	r3, .L79+8
 710 00e8 9878     		ldrb	r0, [r3, #2]	@ zero_extendqisi2
 711 00ea FFF7FEFF 		bl	Pin_1a_Write
 712              	.LVL54:
 246:main.c        ****                             Pin_1b_Write(Low);                            
 713              		.loc 1 246 0
 714 00ee 624C     		ldr	r4, .L79
 715 00f0 E078     		ldrb	r0, [r4, #3]	@ zero_extendqisi2
 716 00f2 FFF7FEFF 		bl	Pin_1b_Write
 717              	.LVL55:
 247:main.c        ****                             Pin_2a_Write(Low);                            
 718              		.loc 1 247 0
 719 00f6 E078     		ldrb	r0, [r4, #3]	@ zero_extendqisi2
 720 00f8 FFF7FEFF 		bl	Pin_2a_Write
 721              	.LVL56:
 248:main.c        ****                             Pin_2b_Write(Low);
 722              		.loc 1 248 0
 723 00fc E078     		ldrb	r0, [r4, #3]	@ zero_extendqisi2
 724 00fe FFF7FEFF 		bl	Pin_2b_Write
 725              	.LVL57:
 249:main.c        ****                             currPos = Position_B2;
 726              		.loc 1 249 0
 727 0102 0323     		movs	r3, #3
 728 0104 A370     		strb	r3, [r4, #2]
 250:main.c        ****                         break;
 729              		.loc 1 250 0
 730 0106 38BD     		pop	{r3, r4, r5, pc}
 731              	.L65:
 251:main.c        ****                         case Position_B2:  
 252:main.c        ****                             UART_1_PutString("B/");
 732              		.loc 1 252 0
 733 0108 6048     		ldr	r0, .L79+20
 734 010a FFF7FEFF 		bl	UART_1_PutString
 735              	.LVL58:
 253:main.c        ****                             Pin_1a_Write(Low);
 736              		.loc 1 253 0
 737 010e 5A4C     		ldr	r4, .L79
 738 0110 E078     		ldrb	r0, [r4, #3]	@ zero_extendqisi2
 739 0112 FFF7FEFF 		bl	Pin_1a_Write
 740              	.LVL59:
 254:main.c        ****                             Pin_1b_Write(Low);                            
 741              		.loc 1 254 0
 742 0116 E078     		ldrb	r0, [r4, #3]	@ zero_extendqisi2
 743 0118 FFF7FEFF 		bl	Pin_1b_Write
 744              	.LVL60:
 255:main.c        ****                             Pin_2a_Write(Low);                            
 745              		.loc 1 255 0
 746 011c E078     		ldrb	r0, [r4, #3]	@ zero_extendqisi2
 747 011e FFF7FEFF 		bl	Pin_2a_Write
 748              	.LVL61:
 256:main.c        ****                             Pin_2b_Write(High);
ARM GAS  C:\Users\Simon\AppData\Local\Temp\ccngvqHL.s 			page 19


 749              		.loc 1 256 0
 750 0122 574B     		ldr	r3, .L79+8
 751 0124 9878     		ldrb	r0, [r3, #2]	@ zero_extendqisi2
 752 0126 FFF7FEFF 		bl	Pin_2b_Write
 753              	.LVL62:
 257:main.c        ****                             currPos = Position_A2;
 754              		.loc 1 257 0
 755 012a 0123     		movs	r3, #1
 756 012c A370     		strb	r3, [r4, #2]
 258:main.c        ****                         break;                                                     
 757              		.loc 1 258 0
 758 012e 38BD     		pop	{r3, r4, r5, pc}
 759              	.L63:
 259:main.c        ****                             
 260:main.c        ****                         case Position_A2: 
 261:main.c        ****                             UART_1_PutString("A/");
 760              		.loc 1 261 0
 761 0130 5548     		ldr	r0, .L79+16
 762 0132 FFF7FEFF 		bl	UART_1_PutString
 763              	.LVL63:
 262:main.c        ****                             Pin_1a_Write(Low);
 764              		.loc 1 262 0
 765 0136 504C     		ldr	r4, .L79
 766 0138 E078     		ldrb	r0, [r4, #3]	@ zero_extendqisi2
 767 013a FFF7FEFF 		bl	Pin_1a_Write
 768              	.LVL64:
 263:main.c        ****                             Pin_1b_Write(Low);                            
 769              		.loc 1 263 0
 770 013e E078     		ldrb	r0, [r4, #3]	@ zero_extendqisi2
 771 0140 FFF7FEFF 		bl	Pin_1b_Write
 772              	.LVL65:
 264:main.c        ****                             Pin_2a_Write(High);                            
 773              		.loc 1 264 0
 774 0144 4E4B     		ldr	r3, .L79+8
 775 0146 9878     		ldrb	r0, [r3, #2]	@ zero_extendqisi2
 776 0148 FFF7FEFF 		bl	Pin_2a_Write
 777              	.LVL66:
 265:main.c        ****                             Pin_2b_Write(Low);
 778              		.loc 1 265 0
 779 014c E078     		ldrb	r0, [r4, #3]	@ zero_extendqisi2
 780 014e FFF7FEFF 		bl	Pin_2b_Write
 781              	.LVL67:
 266:main.c        ****                             currPos = Position_B1;
 782              		.loc 1 266 0
 783 0152 0223     		movs	r3, #2
 784 0154 A370     		strb	r3, [r4, #2]
 267:main.c        ****                         break;
 785              		.loc 1 267 0
 786 0156 38BD     		pop	{r3, r4, r5, pc}
 787              	.L64:
 268:main.c        ****                             
 269:main.c        ****                         case Position_B1:
 270:main.c        ****                             UART_1_PutString("B");
 788              		.loc 1 270 0
 789 0158 4A48     		ldr	r0, .L79+12
 790 015a FFF7FEFF 		bl	UART_1_PutString
 791              	.LVL68:
ARM GAS  C:\Users\Simon\AppData\Local\Temp\ccngvqHL.s 			page 20


 271:main.c        ****                             Pin_1a_Write(Low);
 792              		.loc 1 271 0
 793 015e 464C     		ldr	r4, .L79
 794 0160 E078     		ldrb	r0, [r4, #3]	@ zero_extendqisi2
 795 0162 FFF7FEFF 		bl	Pin_1a_Write
 796              	.LVL69:
 272:main.c        ****                             Pin_1b_Write(High);
 797              		.loc 1 272 0
 798 0166 464B     		ldr	r3, .L79+8
 799 0168 9878     		ldrb	r0, [r3, #2]	@ zero_extendqisi2
 800 016a FFF7FEFF 		bl	Pin_1b_Write
 801              	.LVL70:
 273:main.c        ****                             Pin_2a_Write(Low);
 802              		.loc 1 273 0
 803 016e E078     		ldrb	r0, [r4, #3]	@ zero_extendqisi2
 804 0170 FFF7FEFF 		bl	Pin_2a_Write
 805              	.LVL71:
 274:main.c        ****                             Pin_2b_Write(Low);
 806              		.loc 1 274 0
 807 0174 E078     		ldrb	r0, [r4, #3]	@ zero_extendqisi2
 808 0176 FFF7FEFF 		bl	Pin_2b_Write
 809              	.LVL72:
 275:main.c        ****                             currPos = Position_A1;
 810              		.loc 1 275 0
 811 017a 0023     		movs	r3, #0
 812 017c A370     		strb	r3, [r4, #2]
 276:main.c        ****                         break;                   
 813              		.loc 1 276 0
 814 017e 38BD     		pop	{r3, r4, r5, pc}
 815              	.L53:
 277:main.c        ****                     }
 278:main.c        ****                 break;
 279:main.c        ****             }
 280:main.c        ****         
 281:main.c        ****         break;
 282:main.c        ****         
 283:main.c        ****         case Mode_FullStep:
 284:main.c        ****                 switch(currRot)        // Retning
 816              		.loc 1 284 0
 817 0180 3D4B     		ldr	r3, .L79
 818 0182 5B78     		ldrb	r3, [r3, #1]	@ zero_extendqisi2
 819 0184 13B1     		cbz	r3, .L66
 820 0186 012B     		cmp	r3, #1
 821 0188 59D0     		beq	.L67
 822 018a 38BD     		pop	{r3, r4, r5, pc}
 823              	.L66:
 285:main.c        ****                     {
 286:main.c        ****                         case Rotate_F:   
 287:main.c        ****                             switch(currPos)   // Position
 824              		.loc 1 287 0
 825 018c 3A4B     		ldr	r3, .L79
 826 018e 9B78     		ldrb	r3, [r3, #2]	@ zero_extendqisi2
 827 0190 032B     		cmp	r3, #3
 828 0192 00F2C080 		bhi	.L50
 829 0196 DFE803F0 		tbb	[pc, r3]
 830              	.L69:
 831 019a 02       		.byte	(.L68-.L69)/2
ARM GAS  C:\Users\Simon\AppData\Local\Temp\ccngvqHL.s 			page 21


 832 019b 2A       		.byte	(.L70-.L69)/2
 833 019c 16       		.byte	(.L71-.L69)/2
 834 019d 3E       		.byte	(.L72-.L69)/2
 835              		.p2align 1
 836              	.L68:
 288:main.c        ****                             {
 289:main.c        ****                                 case Position_A1:   // Pin_1a ON HVID LEDNING
 290:main.c        ****                                     UART_1_PutString("A+B");
 837              		.loc 1 290 0
 838 019e 3C48     		ldr	r0, .L79+24
 839 01a0 FFF7FEFF 		bl	UART_1_PutString
 840              	.LVL73:
 291:main.c        ****                                     Pin_1a_Write(High);  
 841              		.loc 1 291 0
 842 01a4 364C     		ldr	r4, .L79+8
 843 01a6 A078     		ldrb	r0, [r4, #2]	@ zero_extendqisi2
 844 01a8 FFF7FEFF 		bl	Pin_1a_Write
 845              	.LVL74:
 292:main.c        ****                                     Pin_1b_Write(High);                            
 846              		.loc 1 292 0
 847 01ac A078     		ldrb	r0, [r4, #2]	@ zero_extendqisi2
 848 01ae FFF7FEFF 		bl	Pin_1b_Write
 849              	.LVL75:
 293:main.c        ****                                     Pin_2a_Write(Low);                            
 850              		.loc 1 293 0
 851 01b2 314C     		ldr	r4, .L79
 852 01b4 E078     		ldrb	r0, [r4, #3]	@ zero_extendqisi2
 853 01b6 FFF7FEFF 		bl	Pin_2a_Write
 854              	.LVL76:
 294:main.c        ****                                     Pin_2b_Write(Low);
 855              		.loc 1 294 0
 856 01ba E078     		ldrb	r0, [r4, #3]	@ zero_extendqisi2
 857 01bc FFF7FEFF 		bl	Pin_2b_Write
 858              	.LVL77:
 295:main.c        ****                                     currPos = Position_B1;
 859              		.loc 1 295 0
 860 01c0 0223     		movs	r3, #2
 861 01c2 A370     		strb	r3, [r4, #2]
 296:main.c        ****                                 break;
 862              		.loc 1 296 0
 863 01c4 38BD     		pop	{r3, r4, r5, pc}
 864              	.L71:
 297:main.c        ****                                 case Position_B1:  // Pin_1b ON BLÅ LEDNING
 298:main.c        ****                                     UART_1_PutString("B+A/");
 865              		.loc 1 298 0
 866 01c6 3348     		ldr	r0, .L79+28
 867 01c8 FFF7FEFF 		bl	UART_1_PutString
 868              	.LVL78:
 299:main.c        ****                                     Pin_1a_Write(Low);
 869              		.loc 1 299 0
 870 01cc 2A4C     		ldr	r4, .L79
 871 01ce E078     		ldrb	r0, [r4, #3]	@ zero_extendqisi2
 872 01d0 FFF7FEFF 		bl	Pin_1a_Write
 873              	.LVL79:
 300:main.c        ****                                     Pin_1b_Write(High);                            
 874              		.loc 1 300 0
 875 01d4 2A4D     		ldr	r5, .L79+8
ARM GAS  C:\Users\Simon\AppData\Local\Temp\ccngvqHL.s 			page 22


 876 01d6 A878     		ldrb	r0, [r5, #2]	@ zero_extendqisi2
 877 01d8 FFF7FEFF 		bl	Pin_1b_Write
 878              	.LVL80:
 301:main.c        ****                                     Pin_2a_Write(High);                            
 879              		.loc 1 301 0
 880 01dc A878     		ldrb	r0, [r5, #2]	@ zero_extendqisi2
 881 01de FFF7FEFF 		bl	Pin_2a_Write
 882              	.LVL81:
 302:main.c        ****                                     Pin_2b_Write(Low);
 883              		.loc 1 302 0
 884 01e2 E078     		ldrb	r0, [r4, #3]	@ zero_extendqisi2
 885 01e4 FFF7FEFF 		bl	Pin_2b_Write
 886              	.LVL82:
 303:main.c        ****                                     currPos = Position_A2;
 887              		.loc 1 303 0
 888 01e8 0123     		movs	r3, #1
 889 01ea A370     		strb	r3, [r4, #2]
 304:main.c        ****                                 break;                                                     
 890              		.loc 1 304 0
 891 01ec 38BD     		pop	{r3, r4, r5, pc}
 892              	.L70:
 305:main.c        ****                                     
 306:main.c        ****                                 case Position_A2:  // Pin_2a ON RØD Ledning
 307:main.c        ****                                     UART_1_PutString("A/+B/");
 893              		.loc 1 307 0
 894 01ee 2A48     		ldr	r0, .L79+32
 895 01f0 FFF7FEFF 		bl	UART_1_PutString
 896              	.LVL83:
 308:main.c        ****                                     Pin_1a_Write(Low);
 897              		.loc 1 308 0
 898 01f4 204C     		ldr	r4, .L79
 899 01f6 E078     		ldrb	r0, [r4, #3]	@ zero_extendqisi2
 900 01f8 FFF7FEFF 		bl	Pin_1a_Write
 901              	.LVL84:
 309:main.c        ****                                     Pin_1b_Write(Low);                            
 902              		.loc 1 309 0
 903 01fc E078     		ldrb	r0, [r4, #3]	@ zero_extendqisi2
 904 01fe FFF7FEFF 		bl	Pin_1b_Write
 905              	.LVL85:
 310:main.c        ****                                     Pin_2a_Write(High);                            
 906              		.loc 1 310 0
 907 0202 1F4D     		ldr	r5, .L79+8
 908 0204 A878     		ldrb	r0, [r5, #2]	@ zero_extendqisi2
 909 0206 FFF7FEFF 		bl	Pin_2a_Write
 910              	.LVL86:
 311:main.c        ****                                     Pin_2b_Write(High);
 911              		.loc 1 311 0
 912 020a A878     		ldrb	r0, [r5, #2]	@ zero_extendqisi2
 913 020c FFF7FEFF 		bl	Pin_2b_Write
 914              	.LVL87:
 312:main.c        ****                                     currPos = Position_B2;
 915              		.loc 1 312 0
 916 0210 0323     		movs	r3, #3
 917 0212 A370     		strb	r3, [r4, #2]
 313:main.c        ****                                 break;
 918              		.loc 1 313 0
 919 0214 38BD     		pop	{r3, r4, r5, pc}
ARM GAS  C:\Users\Simon\AppData\Local\Temp\ccngvqHL.s 			page 23


 920              	.L72:
 314:main.c        ****                                     
 315:main.c        ****                                 case Position_B2:  // Pin_2b ON GUL LEDNING
 316:main.c        ****                                     UART_1_PutString("B/+A");
 921              		.loc 1 316 0
 922 0216 2148     		ldr	r0, .L79+36
 923 0218 FFF7FEFF 		bl	UART_1_PutString
 924              	.LVL88:
 317:main.c        ****                                     Pin_1a_Write(High);
 925              		.loc 1 317 0
 926 021c 184D     		ldr	r5, .L79+8
 927 021e A878     		ldrb	r0, [r5, #2]	@ zero_extendqisi2
 928 0220 FFF7FEFF 		bl	Pin_1a_Write
 929              	.LVL89:
 318:main.c        ****                                     Pin_1b_Write(Low);
 930              		.loc 1 318 0
 931 0224 144C     		ldr	r4, .L79
 932 0226 E078     		ldrb	r0, [r4, #3]	@ zero_extendqisi2
 933 0228 FFF7FEFF 		bl	Pin_1b_Write
 934              	.LVL90:
 319:main.c        ****                                     Pin_2a_Write(Low);
 935              		.loc 1 319 0
 936 022c E078     		ldrb	r0, [r4, #3]	@ zero_extendqisi2
 937 022e FFF7FEFF 		bl	Pin_2a_Write
 938              	.LVL91:
 320:main.c        ****                                     Pin_2b_Write(High);
 939              		.loc 1 320 0
 940 0232 A878     		ldrb	r0, [r5, #2]	@ zero_extendqisi2
 941 0234 FFF7FEFF 		bl	Pin_2b_Write
 942              	.LVL92:
 321:main.c        ****                                     currPos = Position_A1;
 943              		.loc 1 321 0
 944 0238 0023     		movs	r3, #0
 945 023a A370     		strb	r3, [r4, #2]
 322:main.c        ****                                 break;                
 946              		.loc 1 322 0
 947 023c 38BD     		pop	{r3, r4, r5, pc}
 948              	.L67:
 323:main.c        ****                             }
 324:main.c        ****                                     
 325:main.c        ****                         break;
 326:main.c        ****                         case Rotate_B:
 327:main.c        ****                             switch(currPos)   // Position
 949              		.loc 1 327 0
 950 023e 0E4B     		ldr	r3, .L79
 951 0240 9B78     		ldrb	r3, [r3, #2]	@ zero_extendqisi2
 952 0242 032B     		cmp	r3, #3
 953 0244 67D8     		bhi	.L50
 954 0246 DFE803F0 		tbb	[pc, r3]
 955              	.L74:
 956 024a 02       		.byte	(.L73-.L74)/2
 957 024b 3F       		.byte	(.L75-.L74)/2
 958 024c 53       		.byte	(.L76-.L74)/2
 959 024d 2B       		.byte	(.L77-.L74)/2
 960              		.p2align 1
 961              	.L73:
 328:main.c        ****                             {
ARM GAS  C:\Users\Simon\AppData\Local\Temp\ccngvqHL.s 			page 24


 329:main.c        ****                                     case Position_A1:
 330:main.c        ****                                     UART_1_PutString("A+B");
 962              		.loc 1 330 0
 963 024e 1048     		ldr	r0, .L79+24
 964 0250 FFF7FEFF 		bl	UART_1_PutString
 965              	.LVL93:
 331:main.c        ****                                     Pin_1a_Write(High);  
 966              		.loc 1 331 0
 967 0254 0A4C     		ldr	r4, .L79+8
 968 0256 A078     		ldrb	r0, [r4, #2]	@ zero_extendqisi2
 969 0258 FFF7FEFF 		bl	Pin_1a_Write
 970              	.LVL94:
 332:main.c        ****                                     Pin_1b_Write(High);                            
 971              		.loc 1 332 0
 972 025c A078     		ldrb	r0, [r4, #2]	@ zero_extendqisi2
 973 025e FFF7FEFF 		bl	Pin_1b_Write
 974              	.LVL95:
 333:main.c        ****                                     Pin_2a_Write(Low);                            
 975              		.loc 1 333 0
 976 0262 054C     		ldr	r4, .L79
 977 0264 E078     		ldrb	r0, [r4, #3]	@ zero_extendqisi2
 978 0266 FFF7FEFF 		bl	Pin_2a_Write
 979              	.LVL96:
 334:main.c        ****                                     Pin_2b_Write(Low);
 980              		.loc 1 334 0
 981 026a E078     		ldrb	r0, [r4, #3]	@ zero_extendqisi2
 982 026c FFF7FEFF 		bl	Pin_2b_Write
 983              	.LVL97:
 335:main.c        ****                                     currPos = Position_B2;
 984              		.loc 1 335 0
 985 0270 0323     		movs	r3, #3
 986 0272 A370     		strb	r3, [r4, #2]
 336:main.c        ****                                 break;
 987              		.loc 1 336 0
 988 0274 38BD     		pop	{r3, r4, r5, pc}
 989              	.L80:
 990 0276 00BF     		.align	2
 991              	.L79:
 992 0278 00000000 		.word	.LANCHOR0
 993 027c C0000000 		.word	.LC12
 994 0280 00000000 		.word	.LANCHOR1
 995 0284 C4000000 		.word	.LC13
 996 0288 C8000000 		.word	.LC14
 997 028c CC000000 		.word	.LC15
 998 0290 D0000000 		.word	.LC16
 999 0294 D4000000 		.word	.LC17
 1000 0298 DC000000 		.word	.LC18
 1001 029c E4000000 		.word	.LC19
 1002              	.L77:
 337:main.c        ****                                 case Position_B2:  
 338:main.c        ****                                     UART_1_PutString("B/+A");
 1003              		.loc 1 338 0
 1004 02a0 1D48     		ldr	r0, .L81
 1005 02a2 FFF7FEFF 		bl	UART_1_PutString
 1006              	.LVL98:
 339:main.c        ****                                     Pin_1a_Write(High);
 1007              		.loc 1 339 0
ARM GAS  C:\Users\Simon\AppData\Local\Temp\ccngvqHL.s 			page 25


 1008 02a6 1D4D     		ldr	r5, .L81+4
 1009 02a8 A878     		ldrb	r0, [r5, #2]	@ zero_extendqisi2
 1010 02aa FFF7FEFF 		bl	Pin_1a_Write
 1011              	.LVL99:
 340:main.c        ****                                     Pin_1b_Write(Low);                            
 1012              		.loc 1 340 0
 1013 02ae 1C4C     		ldr	r4, .L81+8
 1014 02b0 E078     		ldrb	r0, [r4, #3]	@ zero_extendqisi2
 1015 02b2 FFF7FEFF 		bl	Pin_1b_Write
 1016              	.LVL100:
 341:main.c        ****                                     Pin_2a_Write(Low);                            
 1017              		.loc 1 341 0
 1018 02b6 E078     		ldrb	r0, [r4, #3]	@ zero_extendqisi2
 1019 02b8 FFF7FEFF 		bl	Pin_2a_Write
 1020              	.LVL101:
 342:main.c        ****                                     Pin_2b_Write(High);
 1021              		.loc 1 342 0
 1022 02bc A878     		ldrb	r0, [r5, #2]	@ zero_extendqisi2
 1023 02be FFF7FEFF 		bl	Pin_2b_Write
 1024              	.LVL102:
 343:main.c        ****                                     currPos = Position_A2;
 1025              		.loc 1 343 0
 1026 02c2 0123     		movs	r3, #1
 1027 02c4 A370     		strb	r3, [r4, #2]
 344:main.c        ****                                 break;                                                     
 1028              		.loc 1 344 0
 1029 02c6 38BD     		pop	{r3, r4, r5, pc}
 1030              	.L75:
 345:main.c        ****                                     
 346:main.c        ****                                 case Position_A2: 
 347:main.c        ****                                     UART_1_PutString("A/+B/");
 1031              		.loc 1 347 0
 1032 02c8 1648     		ldr	r0, .L81+12
 1033 02ca FFF7FEFF 		bl	UART_1_PutString
 1034              	.LVL103:
 348:main.c        ****                                     Pin_1a_Write(Low);
 1035              		.loc 1 348 0
 1036 02ce 144C     		ldr	r4, .L81+8
 1037 02d0 E078     		ldrb	r0, [r4, #3]	@ zero_extendqisi2
 1038 02d2 FFF7FEFF 		bl	Pin_1a_Write
 1039              	.LVL104:
 349:main.c        ****                                     Pin_1b_Write(Low);                            
 1040              		.loc 1 349 0
 1041 02d6 E078     		ldrb	r0, [r4, #3]	@ zero_extendqisi2
 1042 02d8 FFF7FEFF 		bl	Pin_1b_Write
 1043              	.LVL105:
 350:main.c        ****                                     Pin_2a_Write(High);                            
 1044              		.loc 1 350 0
 1045 02dc 0F4D     		ldr	r5, .L81+4
 1046 02de A878     		ldrb	r0, [r5, #2]	@ zero_extendqisi2
 1047 02e0 FFF7FEFF 		bl	Pin_2a_Write
 1048              	.LVL106:
 351:main.c        ****                                     Pin_2b_Write(High);
 1049              		.loc 1 351 0
 1050 02e4 A878     		ldrb	r0, [r5, #2]	@ zero_extendqisi2
 1051 02e6 FFF7FEFF 		bl	Pin_2b_Write
 1052              	.LVL107:
ARM GAS  C:\Users\Simon\AppData\Local\Temp\ccngvqHL.s 			page 26


 352:main.c        ****                                     currPos = Position_B1;
 1053              		.loc 1 352 0
 1054 02ea 0223     		movs	r3, #2
 1055 02ec A370     		strb	r3, [r4, #2]
 353:main.c        ****                                 break;
 1056              		.loc 1 353 0
 1057 02ee 38BD     		pop	{r3, r4, r5, pc}
 1058              	.L76:
 354:main.c        ****                                     
 355:main.c        ****                                 case Position_B1:
 356:main.c        ****                                     UART_1_PutString("B+A/");
 1059              		.loc 1 356 0
 1060 02f0 0D48     		ldr	r0, .L81+16
 1061 02f2 FFF7FEFF 		bl	UART_1_PutString
 1062              	.LVL108:
 357:main.c        ****                                     Pin_1a_Write(Low);
 1063              		.loc 1 357 0
 1064 02f6 0A4C     		ldr	r4, .L81+8
 1065 02f8 E078     		ldrb	r0, [r4, #3]	@ zero_extendqisi2
 1066 02fa FFF7FEFF 		bl	Pin_1a_Write
 1067              	.LVL109:
 358:main.c        ****                                     Pin_1b_Write(High);
 1068              		.loc 1 358 0
 1069 02fe 074D     		ldr	r5, .L81+4
 1070 0300 A878     		ldrb	r0, [r5, #2]	@ zero_extendqisi2
 1071 0302 FFF7FEFF 		bl	Pin_1b_Write
 1072              	.LVL110:
 359:main.c        ****                                     Pin_2a_Write(High);
 1073              		.loc 1 359 0
 1074 0306 A878     		ldrb	r0, [r5, #2]	@ zero_extendqisi2
 1075 0308 FFF7FEFF 		bl	Pin_2a_Write
 1076              	.LVL111:
 360:main.c        ****                                     Pin_2b_Write(Low);
 1077              		.loc 1 360 0
 1078 030c E078     		ldrb	r0, [r4, #3]	@ zero_extendqisi2
 1079 030e FFF7FEFF 		bl	Pin_2b_Write
 1080              	.LVL112:
 361:main.c        ****                                     currPos = Position_A1;
 1081              		.loc 1 361 0
 1082 0312 0023     		movs	r3, #0
 1083 0314 A370     		strb	r3, [r4, #2]
 1084              	.L50:
 1085 0316 38BD     		pop	{r3, r4, r5, pc}
 1086              	.L82:
 1087              		.align	2
 1088              	.L81:
 1089 0318 E4000000 		.word	.LC19
 1090 031c 00000000 		.word	.LANCHOR1
 1091 0320 00000000 		.word	.LANCHOR0
 1092 0324 DC000000 		.word	.LC18
 1093 0328 D4000000 		.word	.LC17
 1094              		.cfi_endproc
 1095              	.LFE74:
 1096              		.size	status, .-status
 1097              		.section	.text.ISR_timer_handler,"ax",%progbits
 1098              		.align	2
 1099              		.global	ISR_timer_handler
ARM GAS  C:\Users\Simon\AppData\Local\Temp\ccngvqHL.s 			page 27


 1100              		.thumb
 1101              		.thumb_func
 1102              		.type	ISR_timer_handler, %function
 1103              	ISR_timer_handler:
 1104              	.LFB64:
  73:main.c        ****    timerCount++;
 1105              		.loc 1 73 0
 1106              		.cfi_startproc
 1107              		@ args = 0, pretend = 0, frame = 0
 1108              		@ frame_needed = 0, uses_anonymous_args = 0
 1109 0000 08B5     		push	{r3, lr}
 1110              		.cfi_def_cfa_offset 8
 1111              		.cfi_offset 3, -8
 1112              		.cfi_offset 14, -4
  74:main.c        ****     if(timerCount == timerInterrupt)
 1113              		.loc 1 74 0
 1114 0002 074A     		ldr	r2, .L86
 1115 0004 9388     		ldrh	r3, [r2, #4]
 1116 0006 0133     		adds	r3, r3, #1
 1117 0008 9BB2     		uxth	r3, r3
 1118 000a 9380     		strh	r3, [r2, #4]	@ movhi
  75:main.c        ****     {
 1119              		.loc 1 75 0
 1120 000c 054A     		ldr	r2, .L86+4
 1121 000e 1288     		ldrh	r2, [r2]
 1122 0010 9342     		cmp	r3, r2
 1123 0012 04D1     		bne	.L83
  77:main.c        ****         timerCount = 0; 
 1124              		.loc 1 77 0
 1125 0014 FFF7FEFF 		bl	status
 1126              	.LVL113:
  78:main.c        ****         
 1127              		.loc 1 78 0
 1128 0018 0022     		movs	r2, #0
 1129 001a 014B     		ldr	r3, .L86
 1130 001c 9A80     		strh	r2, [r3, #4]	@ movhi
 1131              	.L83:
 1132 001e 08BD     		pop	{r3, pc}
 1133              	.L87:
 1134              		.align	2
 1135              	.L86:
 1136 0020 00000000 		.word	.LANCHOR0
 1137 0024 00000000 		.word	.LANCHOR1
 1138              		.cfi_endproc
 1139              	.LFE64:
 1140              		.size	ISR_timer_handler, .-ISR_timer_handler
 1141              		.global	timerInterrupt
 1142              		.global	timerCount
 1143              		.global	Low
 1144              		.global	High
 1145              		.data
 1146              		.align	1
 1147              		.set	.LANCHOR1,. + 0
 1148              		.type	timerInterrupt, %object
 1149              		.size	timerInterrupt, 2
 1150              	timerInterrupt:
 1151 0000 E803     		.short	1000
ARM GAS  C:\Users\Simon\AppData\Local\Temp\ccngvqHL.s 			page 28


 1152              		.type	High, %object
 1153              		.size	High, 1
 1154              	High:
 1155 0002 01       		.byte	1
 1156              		.section	.rodata.str1.4,"aMS",%progbits,1
 1157              		.align	2
 1158              	.LC0:
 1159 0000 44432D4D 		.ascii	"DC-Motor-PWM application started\015\012\000"
 1159      6F746F72 
 1159      2D50574D 
 1159      20617070 
 1159      6C696361 
 1160 0023 00       		.space	1
 1161              	.LC1:
 1162 0024 313A2057 		.ascii	"1: WaveDrive\015\012\000"
 1162      61766544 
 1162      72697665 
 1162      0D0A00
 1163 0033 00       		.space	1
 1164              	.LC2:
 1165 0034 323A2046 		.ascii	"2: FullStep\015\012\000"
 1165      756C6C53 
 1165      7465700D 
 1165      0A00
 1166 0042 0000     		.space	2
 1167              	.LC3:
 1168 0044 333A2048 		.ascii	"3: HalfStep\015\012\000"
 1168      616C6653 
 1168      7465700D 
 1168      0A00
 1169 0052 0000     		.space	2
 1170              	.LC4:
 1171 0054 343A2053 		.ascii	"4: Stop\015\012\000"
 1171      746F700D 
 1171      0A00
 1172 005e 0000     		.space	2
 1173              	.LC5:
 1174 0060 353A2052 		.ascii	"5: Rotate\015\012\000"
 1174      6F746174 
 1174      650D0A00 
 1175              	.LC6:
 1176 006c 713A2049 		.ascii	"q: Increase speed\015\012\000"
 1176      6E637265 
 1176      61736520 
 1176      73706565 
 1176      640D0A00 
 1177              	.LC7:
 1178 0080 773A2044 		.ascii	"w: Decrease speed\015\012\000"
 1178      65637265 
 1178      61736520 
 1178      73706565 
 1178      640D0A00 
 1179              	.LC8:
 1180 0094 57617665 		.ascii	"WaveDrive\000"
 1180      44726976 
 1180      6500
 1181 009e 0000     		.space	2
ARM GAS  C:\Users\Simon\AppData\Local\Temp\ccngvqHL.s 			page 29


 1182              	.LC9:
 1183 00a0 46756C6C 		.ascii	"FullStep\000"
 1183      53746570 
 1183      00
 1184 00a9 000000   		.space	3
 1185              	.LC10:
 1186 00ac 48616C66 		.ascii	"HalfStep\000"
 1186      53746570 
 1186      00
 1187 00b5 000000   		.space	3
 1188              	.LC11:
 1189 00b8 53746F70 		.ascii	"Stop\000"
 1189      00
 1190 00bd 000000   		.space	3
 1191              	.LC12:
 1192 00c0 4100     		.ascii	"A\000"
 1193 00c2 0000     		.space	2
 1194              	.LC13:
 1195 00c4 4200     		.ascii	"B\000"
 1196 00c6 0000     		.space	2
 1197              	.LC14:
 1198 00c8 412F00   		.ascii	"A/\000"
 1199 00cb 00       		.space	1
 1200              	.LC15:
 1201 00cc 422F00   		.ascii	"B/\000"
 1202 00cf 00       		.space	1
 1203              	.LC16:
 1204 00d0 412B4200 		.ascii	"A+B\000"
 1205              	.LC17:
 1206 00d4 422B412F 		.ascii	"B+A/\000"
 1206      00
 1207 00d9 000000   		.space	3
 1208              	.LC18:
 1209 00dc 412F2B42 		.ascii	"A/+B/\000"
 1209      2F00
 1210 00e2 0000     		.space	2
 1211              	.LC19:
 1212 00e4 422F2B41 		.ascii	"B/+A\000"
 1212      00
 1213              		.bss
 1214              		.align	1
 1215              		.set	.LANCHOR0,. + 0
 1216              		.type	modeChosen, %object
 1217              		.size	modeChosen, 1
 1218              	modeChosen:
 1219 0000 00       		.space	1
 1220              		.type	currRot, %object
 1221              		.size	currRot, 1
 1222              	currRot:
 1223 0001 00       		.space	1
 1224              		.type	currPos, %object
 1225              		.size	currPos, 1
 1226              	currPos:
 1227 0002 00       		.space	1
 1228              		.type	Low, %object
 1229              		.size	Low, 1
 1230              	Low:
ARM GAS  C:\Users\Simon\AppData\Local\Temp\ccngvqHL.s 			page 30


 1231 0003 00       		.space	1
 1232              		.type	timerCount, %object
 1233              		.size	timerCount, 2
 1234              	timerCount:
 1235 0004 0000     		.space	2
 1236              		.text
 1237              	.Letext0:
 1238              		.file 2 "c:\\program files (x86)\\cypress\\psoc creator\\4.3\\psoc creator\\import\\gnu\\arm\\5.4.
 1239              		.file 3 "c:\\program files (x86)\\cypress\\psoc creator\\4.3\\psoc creator\\import\\gnu\\arm\\5.4.
 1240              		.file 4 "Generated_Source\\PSoC5/cytypes.h"
 1241              		.file 5 "Generated_Source\\PSoC5/core_cm3.h"
 1242              		.file 6 "Generated_Source\\PSoC5/isr_uart_rx.h"
 1243              		.file 7 "Generated_Source\\PSoC5/isr_timer.h"
 1244              		.file 8 "Generated_Source\\PSoC5/UART_1.h"
 1245              		.file 9 "Generated_Source\\PSoC5/Timer_1.h"
 1246              		.file 10 "Generated_Source\\PSoC5/Pin_1a.h"
 1247              		.file 11 "Generated_Source\\PSoC5/Pin_1b.h"
 1248              		.file 12 "Generated_Source\\PSoC5/Pin_2a.h"
 1249              		.file 13 "Generated_Source\\PSoC5/Pin_2b.h"